(lp0
(lp1
S'729'
p2
aS'NE'
p3
aS'188TH'
p4
aS'AVE'
p5
aS'GRESHAM'
p6
aS'OR'
p7
aS'97230'
p8
aa(lp9
S'8415'
p10
aS'NW'
p11
aS'HAZELTINE'
p12
aS'ST'
p13
aS'PORTLAND'
p14
aS'OR'
p15
aS'97229'
p16
aa(lp17
S'2733'
p18
aS'NE'
p19
aS'26TH'
p20
aS'AVE'
p21
aS'PORTLAND'
p22
aS'OR'
p23
aS'97212'
p24
aa(lp25
S'736'
p26
aS'SE'
p27
aS'48TH'
p28
aS'AVE'
p29
aS'PORTLAND'
p30
aS'OR'
p31
aS'97215'
p32
aa(lp33
S'5833'
p34
aS'SE'
p35
aS'NEHALEM'
p36
aS'ST'
p37
aS'PORTLAND'
p38
aS'OR'
p39
aS'97206'
p40
aa(lp41
S'935'
p42
aS'SE'
p43
aS'LIBERTY'
p44
aS'AVE'
p45
aS'GRESHAM'
p46
aS'OR'
p47
aS'97080'
p48
aa(lp49
S'7212'
p50
aS'SE'
p51
aS'282ND'
p52
aS'AVE'
p53
aS'GRESHAM'
p54
aS'OR'
p55
aS'97080'
p56
aa(lp57
S'4108'
p58
aS'SE'
p59
aS'16TH'
p60
aS'AVE'
p61
aS'PORTLAND'
p62
aS'OR'
p63
aS'97202'
p64
aa(lp65
S'12100'
p66
aS'SW'
p67
aS'LESSER'
p68
aS'RD'
p69
aS'PORTLAND'
p70
aS'OR'
p71
aS'97219'
p72
aa(lp73
S'1817'
p74
aS'NE'
p75
aS'MULTNOMAH'
p76
aS'ST'
p77
aS'PORTLAND'
p78
aS'OR'
p79
aS'97232'
p80
aa(lp81
S'6420'
p82
aS'NE'
p83
aS'DAVIS'
p84
aS'ST'
p85
aS'PORTLAND'
p86
aS'OR'
p87
aS'97213'
p88
aa(lp89
S'2406'
p90
aS'SE'
p91
aS'113TH'
p92
aS'AVE'
p93
aS'PORTLAND'
p94
aS'OR'
p95
aS'97216'
p96
aa(lp97
S'1906'
p98
aS'SW'
p99
aS'IOWA'
p100
aS'ST'
p101
aS'PORTLAND'
p102
aS'OR'
p103
aS'97239'
p104
aa(lp105
S'5455'
p106
aS'SW'
p107
aS'VACUNA'
p108
aS'ST'
p109
aS'PORTLAND'
p110
aS'OR'
p111
aS'97219'
p112
aa(lp113
S'4914'
p114
aS'NE'
p115
aS'60TH'
p116
aS'AVE'
p117
aS'PORTLAND'
p118
aS'OR'
p119
aS'97218'
p120
aa(lp121
S'4040'
p122
aS'N'
p123
aS'MONTANA'
p124
aS'AVE'
p125
aS'PORTLAND'
p126
aS'OR'
p127
aS'97227'
p128
aa(lp129
S'2237'
p130
aS'NE'
p131
aS'81ST'
p132
aS'AVE'
p133
aS'PORTLAND'
p134
aS'OR'
p135
aS'97213'
p136
aa(lp137
S'1125'
p138
aS'NE'
p139
aS'70TH'
p140
aS'AVE'
p141
aS'PORTLAND'
p142
aS'OR'
p143
aS'97213'
p144
aa(lp145
S'3424'
p146
aS'SE'
p147
aS'116TH'
p148
aS'AVE'
p149
aS'PORTLAND'
p150
aS'OR'
p151
aS'97266'
p152
aa(lp153
S'5312'
p154
aS'SW'
p155
aS'BURTON'
p156
aS'DR'
p157
aS'PORTLAND'
p158
aS'OR'
p159
aS'97221'
p160
aa(lp161
S'5035'
p162
aS'SW'
p163
aS'NEVADA'
p164
aS'CT'
p165
aS'PORTLAND'
p166
aS'OR'
p167
aS'97219'
p168
aa(lp169
S'2297'
p170
aS'SE'
p171
aS'DARLING'
p172
aS'AVE'
p173
aS'GRESHAM'
p174
aS'OR'
p175
aS'97080'
p176
aa(lp177
S'9272'
p178
aS'SE'
p179
aS'HAWTHORNE'
p180
aS'BLVD'
p181
aS'PORTLAND'
p182
aS'OR'
p183
aS'97216'
p184
aa(lp185
S'7934'
p186
aS'SE'
p187
aS'76TH'
p188
aS'PL'
p189
aS'PORTLAND'
p190
aS'OR'
p191
aS'97206'
p192
aa(lp193
S'940'
p194
aS'NE'
p195
aS'EMERSON'
p196
aS'ST'
p197
aS'PORTLAND'
p198
aS'OR'
p199
aS'97211'
p200
aa(lp201
S'5312'
p202
aS'SE'
p203
aS'GLADSTONE'
p204
aS'ST'
p205
aS'PORTLAND'
p206
aS'OR'
p207
aS'97206'
p208
aa(lp209
S'1878'
p210
aS'SE'
p211
aS'JASMINE'
p212
aS'PL'
p213
aS'GRESHAM'
p214
aS'OR'
p215
aS'97080'
p216
aa(lp217
S'5440'
p218
aS'NE'
p219
aS'34TH'
p220
aS'AVE'
p221
aS'PORTLAND'
p222
aS'OR'
p223
aS'97211'
p224
aa(lp225
S'101'
p226
aS'NE'
p227
aS'128TH'
p228
aS'AVE'
p229
aS'PORTLAND'
p230
aS'OR'
p231
aS'97230'
p232
aa(lp233
S'7530'
p234
ag123
aS'BUCHANAN'
p235
aS'AVE'
p236
aS'PORTLAND'
p237
aS'OR'
p238
aS'97203'
p239
aa(lp240
S'4935'
p241
aS'NE'
p242
aS'21ST'
p243
aS'AVE'
p244
aS'PORTLAND'
p245
aS'OR'
p246
aS'97211'
p247
aa(lp248
S'923'
p249
aS''
p250
aS'NE'
p251
aS'BROADWAY'
p252
aS'PORTLAND'
p253
aS'OR'
p254
aS'97232'
p255
aa(lp256
S'5335'
p257
aS'SE'
p258
aS'45TH'
p259
aS'AVE'
p260
aS'PORTLAND'
p261
aS'OR'
p262
aS'97206'
p263
aa(lp264
S'1025'
p265
aS'SE'
p266
aS'179TH'
p267
aS'AVE'
p268
aS'GRESHAM'
p269
aS'OR'
p270
aS'97233'
p271
aa(lp272
S'6718'
p273
aS'SE'
p274
aS'RHONE'
p275
aS'ST'
p276
aS'PORTLAND'
p277
aS'OR'
p278
aS'97206'
p279
aa(lp280
S'3629'
p281
aS'SE'
p282
aS'BROOKLYN'
p283
aS'ST'
p284
aS'PORTLAND'
p285
aS'OR'
p286
aS'97202'
p287
aa(lp288
S'4019'
p289
aS'SE'
p290
aS'HENDERSON'
p291
aS'ST'
p292
aS'PORTLAND'
p293
aS'OR'
p294
aS'97202'
p295
aa(lp296
S'8729'
p297
aS'SE'
p298
aS'MALDEN'
p299
aS'ST'
p300
aS'PORTLAND'
p301
aS'OR'
p302
aS'97266'
p303
aa(lp304
S'6936'
p305
ag123
aS'GREENWICH'
p306
aS'AVE'
p307
aS'PORTLAND'
p308
aS'OR'
p309
aS'97217'
p310
aa(lp311
S'3267'
p312
ag123
aS'ARLINGTON'
p313
aS'PL'
p314
aS'PORTLAND'
p315
aS'OR'
p316
aS'97217'
p317
aa(lp318
S'3024'
p319
aS'SE'
p320
aS'129TH'
p321
aS'AVE'
p322
aS'PORTLAND'
p323
aS'OR'
p324
aS'97236'
p325
aa(lp326
S'12703'
p327
aS'NE'
p328
aS'CLACKAMAS'
p329
aS'ST'
p330
aS'PORTLAND'
p331
aS'OR'
p332
aS'97230'
p333
aa(lp334
S'2523'
p335
ag123
aS'WATTS'
p336
aS'ST'
p337
aS'PORTLAND'
p338
aS'OR'
p339
aS'97217'
p340
aa(lp341
S'2245'
p342
aS'SE'
p343
aS'184TH'
p344
aS'AVE'
p345
aS'GRESHAM'
p346
aS'OR'
p347
aS'97233'
p348
aa(lp349
S'3011'
p350
aS'SW'
p351
aS'WILLOW'
p352
aS'PKWY'
p353
aS'GRESHAM'
p354
aS'OR'
p355
aS'97080'
p356
aa(lp357
S'5417'
p358
aS'SE'
p359
aS'BOISE'
p360
aS'ST'
p361
aS'PORTLAND'
p362
aS'OR'
p363
aS'97206'
p364
aa(lp365
S'2905'
p366
aS'SE'
p367
aS'PALOMA'
p368
aS'AVE'
p369
aS'GRESHAM'
p370
aS'OR'
p371
aS'97080'
p372
aa(lp373
S'4002'
p374
aS'SE'
p375
aS'CRYSTAL SPRINGS'
p376
aS'BLVD'
p377
aS'PORTLAND'
p378
aS'OR'
p379
aS'97202'
p380
aa(lp381
S'3535'
p382
aS'SW'
p383
aS'POMONA'
p384
aS'ST'
p385
aS'PORTLAND'
p386
aS'OR'
p387
aS'97219'
p388
aa(lp389
S'4351'
p390
aS'NE'
p391
aS'109TH'
p392
aS'AVE'
p393
aS'PORTLAND'
p394
aS'OR'
p395
aS'97220'
p396
aa(lp397
S'710'
p398
ag123
aS'HOLLAND'
p399
aS'ST'
p400
aS'PORTLAND'
p401
aS'OR'
p402
aS'97217'
p403
aa(lp404
S'270'
p405
aS'NE'
p406
aS'191ST'
p407
aS'AVE'
p408
aS'GRESHAM'
p409
aS'OR'
p410
aS'97230'
p411
aa(lp412
S'2056'
p413
aS'SE'
p414
aS'177TH'
p415
aS'AVE'
p416
aS'GRESHAM'
p417
aS'OR'
p418
aS'97233'
p419
aa(lp420
S'420'
p421
aS'NW'
p422
aS'11TH'
p423
aS'AVE'
p424
aS'PORTLAND'
p425
aS'OR'
p426
aS'97209'
p427
aa(lp428
S'2522'
p429
aS'NW'
p430
aS'VAUGHN'
p431
aS'ST'
p432
aS'PORTLAND'
p433
aS'OR'
p434
aS'97210'
p435
aa(lp436
S'7809'
p437
aS'SW'
p438
aS'RUBY'
p439
aS'TER'
p440
aS'PORTLAND'
p441
aS'OR'
p442
aS'97219'
p443
aa(lp444
S'169'
p445
ag123
aS'LOTUS BEACH'
p446
aS'DR'
p447
aS'PORTLAND'
p448
aS'OR'
p449
aS'97217'
p450
aa(lp451
S'6720'
p452
aS'NE'
p453
aS'EMERSON'
p454
aS'ST'
p455
aS'PORTLAND'
p456
aS'OR'
p457
aS'97218'
p458
aa(lp459
S'3250'
p460
aS'NE'
p461
aS'130TH'
p462
aS'AVE'
p463
aS'PORTLAND'
p464
aS'OR'
p465
aS'97230'
p466
aa(lp467
S'6105'
p468
aS'SW'
p469
aS'MACADAM'
p470
aS'AVE'
p471
aS'PORTLAND'
p472
aS'OR'
p473
aS'97239'
p474
aa(lp475
S'833'
p476
aS'NE'
p477
aS'FALOMA'
p478
aS'RD'
p479
aS'PORTLAND'
p480
aS'OR'
p481
aS'97211'
p482
aa(lp483
S'2021'
p484
aS'SE'
p485
aS'20TH'
p486
aS'AVE'
p487
aS'PORTLAND'
p488
aS'OR'
p489
aS'97214'
p490
aa(lp491
S'15528'
p492
aS'SE'
p493
aS'EVERGREEN'
p494
aS'DR'
p495
aS'PORTLAND'
p496
aS'OR'
p497
aS'97236'
p498
aa(lp499
S'221'
p500
aS'NW'
p501
aS'2ND'
p502
aS'AVE'
p503
aS'PORTLAND'
p504
aS'OR'
p505
aS'97209'
p506
aa(lp507
S'2815'
p508
aS'NE'
p509
aS'55TH'
p510
aS'AVE'
p511
aS'PORTLAND'
p512
aS'OR'
p513
aS'97213'
p514
aa(lp515
S'225'
p516
ag250
aS'CERVANTES'
p517
ag250
aS'LAKE OSWEGO'
p518
aS'OR'
p519
aS'97035'
p520
aa(lp521
S'745'
p522
aS'NE'
p523
aS'53RD'
p524
aS'AVE'
p525
aS'PORTLAND'
p526
aS'OR'
p527
aS'97213'
p528
aa(lp529
S'3036'
p530
aS'SW'
p531
aS'BATTAGLIA'
p532
aS'AVE'
p533
aS'GRESHAM'
p534
aS'OR'
p535
aS'97080'
p536
aa(lp537
S'4305 N/'
p538
aS'SW'
p539
aS'TUNNELWOOD'
p540
aS'ST'
p541
aS'PORTLAND'
p542
aS'OR'
p543
aS'97221'
p544
aa(lp545
S'316'
p546
ag250
aS'CERVANTES'
p547
ag250
aS'LAKE OSWEGO'
p548
aS'OR'
p549
aS'97035'
p550
aa(lp551
S'17032'
p552
aS'SE'
p553
aS'MAIN'
p554
aS'ST'
p555
aS'PORTLAND'
p556
aS'OR'
p557
aS'97233'
p558
aa(lp559
S'7126'
p560
aS'SE'
p561
aS'MILWAUKIE'
p562
aS'AVE'
p563
aS'PORTLAND'
p564
aS'OR'
p565
aS'97202'
p566
aa(lp567
S'2930'
p568
aS'NE'
p569
aS'PACIFIC'
p570
aS'ST'
p571
aS'PORTLAND'
p572
aS'OR'
p573
aS'97232'
p574
aa(lp575
S'122'
p576
aS'SW'
p577
aS'GABBERT'
p578
aS'RD'
p579
aS'GRESHAM'
p580
aS'OR'
p581
aS'97080'
p582
aa(lp583
S'9008'
p584
aS'SE'
p585
aS'CRYSTAL SPRINGS'
p586
aS'BLVD'
p587
aS'PORTLAND'
p588
aS'OR'
p589
aS'97266'
p590
aa(lp591
S'2726'
p592
aS'SE'
p593
aS'111TH'
p594
aS'AVE'
p595
aS'PORTLAND'
p596
aS'OR'
p597
aS'97266'
p598
aa(lp599
S'11'
p600
aS'NE'
p601
aS'143RD'
p602
aS'AVE'
p603
aS'PORTLAND'
p604
aS'OR'
p605
aS'97230'
p606
aa(lp607
S'9832'
p608
aS'SE'
p609
aS'HAROLD'
p610
aS'ST'
p611
aS'PORTLAND'
p612
aS'OR'
p613
aS'97266'
p614
aa(lp615
S'3422'
p616
aS'NE'
p617
aS'41ST'
p618
aS'AVE'
p619
aS'PORTLAND'
p620
aS'OR'
p621
aS'97212'
p622
aa(lp623
S'5333'
p624
aS'SE'
p625
aS'136TH'
p626
aS'AVE'
p627
aS'PORTLAND'
p628
aS'OR'
p629
aS'97236'
p630
aa(lp631
S'711'
p632
ag123
aS'STAFFORD'
p633
aS'ST'
p634
aS'PORTLAND'
p635
aS'OR'
p636
aS'97217'
p637
aa(lp638
S'3122'
p639
aS'SW'
p640
aS'CARSON'
p641
aS'ST'
p642
aS'PORTLAND'
p643
aS'OR'
p644
aS'97219'
p645
aa(lp646
S'1221 WI/'
p647
aS'NW'
p648
aS'MARSHALL'
p649
aS'ST'
p650
aS'PORTLAND'
p651
aS'OR'
p652
aS'97209'
p653
aa(lp654
S'12352'
p655
aS'NE'
p656
aS'HOLLADAY'
p657
aS'PL'
p658
aS'PORTLAND'
p659
aS'OR'
p660
aS'97230'
p661
aa(lp662
S'2530'
p663
aS'SW'
p664
aS'WILLOW'
p665
aS'PKWY'
p666
aS'GRESHAM'
p667
aS'OR'
p668
aS'97080'
p669
aa(lp670
S'3016 WI/'
p671
aS'NE'
p672
aS'65TH'
p673
aS'AVE'
p674
aS'PORTLAND'
p675
aS'OR'
p676
aS'97213'
p677
aa(lp678
S'1531'
p679
aS'SE'
p680
aS'PERSHING'
p681
aS'ST'
p682
aS'PORTLAND'
p683
aS'OR'
p684
aS'97202'
p685
aa(lp686
S'6325'
p687
aS'NE'
p688
aS'31ST'
p689
aS'AVE'
p690
aS'PORTLAND'
p691
aS'OR'
p692
aS'97211'
p693
aa(lp694
S'4353'
p695
aS'NE'
p696
aS'HALSEY'
p697
aS'ST'
p698
aS'PORTLAND'
p699
aS'OR'
p700
aS'97213'
p701
aa(lp702
S'1204'
p703
aS'NE'
p704
aS'DEKUM'
p705
aS'ST'
p706
aS'PORTLAND'
p707
aS'OR'
p708
aS'97211'
p709
aa(lp710
S'8440 WI/'
p711
aS'NE'
p712
aS'HALSEY'
p713
aS'ST'
p714
aS'PORTLAND'
p715
aS'OR'
p716
aS'97220'
p717
aa(lp718
S'4826-4828'
p719
aS'SE'
p720
aS'HENRY'
p721
aS'ST'
p722
aS'PORTLAND'
p723
aS'OR'
p724
aS'97206'
p725
aa(lp726
S'2257'
p727
aS'SE'
p728
aS'HACIENDA'
p729
aS'AVE'
p730
aS'GRESHAM'
p731
aS'OR'
p732
aS'97080'
p733
aa(lp734
S'7307'
p735
ag123
aS'MACRUM'
p736
aS'AVE'
p737
aS'PORTLAND'
p738
aS'OR'
p739
aS'97203'
p740
aa(lp741
S'3817'
p742
aS'SE'
p743
aS'REEDWAY'
p744
aS'ST'
p745
aS'PORTLAND'
p746
aS'OR'
p747
aS'97202'
p748
aa(lp749
S'5323'
p750
aS'NE'
p751
aS'19TH'
p752
aS'AVE'
p753
aS'PORTLAND'
p754
aS'OR'
p755
aS'97211'
p756
aa(lp757
S'13612'
p758
aS'NE'
p759
aS'DAVIS'
p760
aS'CT'
p761
aS'PORTLAND'
p762
aS'OR'
p763
aS'97230'
p764
aa(lp765
S'14429'
p766
aS'SE'
p767
aS'ALDER'
p768
aS'CT'
p769
aS'PORTLAND'
p770
aS'OR'
p771
aS'97233'
p772
aa(lp773
S'4532'
p774
aS'SW'
p775
aS'NEVADA'
p776
aS'CT'
p777
aS'PORTLAND'
p778
aS'OR'
p779
aS'97219'
p780
aa(lp781
S'8048'
p782
aS'SE'
p783
aS'STARK'
p784
aS'ST'
p785
aS'PORTLAND'
p786
aS'OR'
p787
aS'97215'
p788
aa(lp789
S'1926'
p790
aS'SE'
p791
aS'EAGLE'
p792
aS'AVE'
p793
aS'GRESHAM'
p794
aS'OR'
p795
aS'97080'
p796
aa(lp797
S'3820'
p798
aS'SW'
p799
aS'SCHOLLS FERRY'
p800
aS'RD'
p801
aS'PORTLAND'
p802
aS'OR'
p803
aS'97221'
p804
aa(lp805
S'5716'
p806
aS'NE'
p807
aS'36TH'
p808
aS'AVE'
p809
aS'PORTLAND'
p810
aS'OR'
p811
aS'97211'
p812
aa(lp813
S'4024'
p814
ag123
aS'COMMERCIAL'
p815
aS'AVE'
p816
aS'PORTLAND'
p817
aS'OR'
p818
aS'97227'
p819
aa(lp820
S'4929'
p821
aS'SE'
p822
aS'BUSH'
p823
aS'ST'
p824
aS'PORTLAND'
p825
aS'OR'
p826
aS'97206'
p827
aa(lp828
S'2750'
p829
aS'SW'
p830
aS'MOODY'
p831
aS'AVE'
p832
aS'PORTLAND'
p833
aS'OR'
p834
aS'97201'
p835
aa(lp836
S'1403'
p837
aS'NE'
p838
aS'59TH'
p839
aS'AVE'
p840
aS'PORTLAND'
p841
aS'OR'
p842
aS'97213'
p843
aa(lp844
S'11755'
p845
aS'SE'
p846
aS'SALMON'
p847
aS'ST'
p848
aS'PORTLAND'
p849
aS'OR'
p850
aS'97216'
p851
aa(lp852
S'6622'
p853
aS'SE'
p854
aS'57TH'
p855
aS'AVE'
p856
aS'PORTLAND'
p857
aS'OR'
p858
aS'97206'
p859
aa(lp860
S'1245'
p861
aS'NE'
p862
aS'29TH'
p863
aS'ST'
p864
aS'GRESHAM'
p865
aS'OR'
p866
aS'97030'
p867
aa(lp868
S'9815'
p869
aS'SW'
p870
aS'53RD'
p871
aS'AVE'
p872
aS'PORTLAND'
p873
aS'OR'
p874
aS'97219'
p875
aa(lp876
S'2533'
p877
aS'NE'
p878
aS'9TH'
p879
aS'AVE'
p880
aS'PORTLAND'
p881
aS'OR'
p882
aS'97212'
p883
aa(lp884
S'8565'
p885
aS'SW'
p886
aS'BARBUR'
p887
aS'BLVD'
p888
aS'PORTLAND'
p889
aS'OR'
p890
aS'97219'
p891
aa(lp892
S'9227'
p893
aS'NE'
p894
aS'LEVEE'
p895
aS'RD'
p896
aS'PORTLAND'
p897
aS'OR'
p898
aS'97211'
p899
aa(lp900
S'1015 WI/'
p901
aS'SE'
p902
aS'WOODWARD'
p903
aS'ST'
p904
aS'PORTLAND'
p905
aS'OR'
p906
aS'97202'
p907
aa(lp908
S'1210'
p909
aS'S'
p910
aS'TROUTDALE'
p911
aS'RD'
p912
aS'TROUTDALE'
p913
aS'OR'
p914
aS'97060'
p915
aa(lp916
S'1023'
p917
aS'NE'
p918
aS'172ND'
p919
aS'AVE'
p920
aS'GRESHAM'
p921
aS'OR'
p922
aS'97230'
p923
aa(lp924
S'3016'
p925
aS'SW'
p926
aS'CHASTAIN'
p927
aS'AVE'
p928
aS'GRESHAM'
p929
aS'OR'
p930
aS'97080'
p931
aa(lp932
S'5022'
p933
aS'SW'
p934
aS'ORCHARD'
p935
aS'LN'
p936
aS'PORTLAND'
p937
aS'OR'
p938
aS'97219'
p939
aa(lp940
S'16548'
p941
aS'NE'
p942
aS'HALSEY'
p943
aS'ST'
p944
aS'GRESHAM'
p945
aS'OR'
p946
aS'97230'
p947
aa(lp948
S'550'
p949
aS'NE'
p950
aS'5TH'
p951
aS'ST'
p952
aS'GRESHAM'
p953
aS'OR'
p954
aS'97030'
p955
aa(lp956
S'3422'
p957
aS'NE'
p958
aS'155TH'
p959
aS'AVE'
p960
aS'PORTLAND'
p961
aS'OR'
p962
aS'97230'
p963
aa(lp964
S'1752'
p965
aS'SE'
p966
aS'CEDAR CREEK'
p967
aS'PL'
p968
aS'GRESHAM'
p969
aS'OR'
p970
aS'97080'
p971
aa(lp972
S'11521'
p973
aS'NW'
p974
aS'LAIDLAW'
p975
aS'RD'
p976
aS'PORTLAND'
p977
aS'OR'
p978
aS'97229'
p979
aa(lp980
S'9235'
p981
ag123
aS'EDISON'
p982
aS'ST'
p983
aS'PORTLAND'
p984
aS'OR'
p985
aS'97203'
p986
aa(lp987
S'1841'
p988
aS'NE'
p989
aS'138TH'
p990
aS'PL'
p991
aS'PORTLAND'
p992
aS'OR'
p993
aS'97230'
p994
aa(lp995
S'4708'
p996
aS'SE'
p997
aS'65TH'
p998
aS'AVE'
p999
aS'PORTLAND'
p1000
aS'OR'
p1001
aS'97206'
p1002
aa(lp1003
S'3235 E/'
p1004
aS'NW'
p1005
aS'ST HELENS'
p1006
aS'RD'
p1007
aS'PORTLAND'
p1008
aS'OR'
p1009
aS'97210'
p1010
aa(lp1011
S'3300'
p1012
ag123
aS'TERRY'
p1013
aS'ST'
p1014
aS'PORTLAND'
p1015
aS'OR'
p1016
aS'97217'
p1017
aa(lp1018
S'310 WI/'
p1019
aS'NE'
p1020
aS'10TH'
p1021
aS'AVE'
p1022
aS'PORTLAND'
p1023
aS'OR'
p1024
aS'97232'
p1025
aa(lp1026
S'3207'
p1027
aS'NW'
p1028
aS'CHAPIN'
p1029
aS'DR'
p1030
aS'PORTLAND'
p1031
aS'OR'
p1032
aS'97229'
p1033
aa(lp1034
S'5924'
p1035
aS'SE'
p1036
aS'HOLGATE'
p1037
aS'BLVD'
p1038
aS'PORTLAND'
p1039
aS'OR'
p1040
aS'97206'
p1041
aa(lp1042
S'319'
p1043
aS'SE'
p1044
aS'141ST'
p1045
aS'AVE'
p1046
aS'PORTLAND'
p1047
aS'OR'
p1048
aS'97233'
p1049
aa(lp1050
S'36720'
p1051
aS'E'
p1052
aS'HIST COLUMBIA RIVER'
p1053
aS'HWY'
p1054
aS'CORBETT'
p1055
aS'OR'
p1056
aS'97019'
p1057
aa(lp1058
S'2437'
p1059
aS'SE'
p1060
aS'TACOMA'
p1061
aS'ST'
p1062
aS'PORTLAND'
p1063
aS'OR'
p1064
aS'97202'
p1065
aa(lp1066
S'18530'
p1067
aS'SE'
p1068
aS'YAMHILL'
p1069
aS'ST'
p1070
aS'GRESHAM'
p1071
aS'OR'
p1072
aS'97233'
p1073
aa(lp1074
S'2923'
p1075
aS'NW'
p1076
aS'SAVIER'
p1077
aS'ST'
p1078
aS'PORTLAND'
p1079
aS'OR'
p1080
aS'97210'
p1081
aa(lp1082
S'15908'
p1083
aS'SE'
p1084
aS'GRANT'
p1085
aS'ST'
p1086
aS'PORTLAND'
p1087
aS'OR'
p1088
aS'97233'
p1089
aa(lp1090
S'11101'
p1091
aS'SE'
p1092
aS'HAROLD'
p1093
aS'ST'
p1094
aS'PORTLAND'
p1095
aS'OR'
p1096
aS'97266'
p1097
aa(lp1098
S'6021'
p1099
aS'SW'
p1100
aS'HOOD'
p1101
aS'AVE'
p1102
aS'PORTLAND'
p1103
aS'OR'
p1104
aS'97239'
p1105
aa(lp1106
S'1710'
p1107
aS'NE'
p1108
aS'116TH'
p1109
aS'PL'
p1110
aS'PORTLAND'
p1111
aS'OR'
p1112
aS'97220'
p1113
aa(lp1114
S'13844'
p1115
aS'SE'
p1116
aS'BUSH'
p1117
aS'ST'
p1118
aS'PORTLAND'
p1119
aS'OR'
p1120
aS'97236'
p1121
aa(lp1122
S'250'
p1123
aS'SE'
p1124
aS'DIVISION'
p1125
aS'PL'
p1126
aS'PORTLAND'
p1127
aS'OR'
p1128
aS'97202'
p1129
aa(lp1130
S'826'
p1131
aS'NE'
p1132
aS'78TH'
p1133
aS'AVE'
p1134
aS'PORTLAND'
p1135
aS'OR'
p1136
aS'97213'
p1137
aa(lp1138
S'4201'
p1139
aS'SW'
p1140
aS'KANAN'
p1141
aS'DR'
p1142
aS'PORTLAND'
p1143
aS'OR'
p1144
aS'97221'
p1145
aa(lp1146
S'3436'
p1147
aS'NE'
p1148
aS'73RD'
p1149
aS'AVE'
p1150
aS'PORTLAND'
p1151
aS'OR'
p1152
aS'97213'
p1153
aa(lp1154
S'13447'
p1155
aS'NE'
p1156
aS'CLACKAMAS'
p1157
aS'ST'
p1158
aS'PORTLAND'
p1159
aS'OR'
p1160
aS'97230'
p1161
aa(lp1162
S'317'
p1163
aS'SE'
p1164
aS'146TH'
p1165
aS'AVE'
p1166
aS'PORTLAND'
p1167
aS'OR'
p1168
aS'97233'
p1169
aa(lp1170
S'3215'
p1171
aS'NE'
p1172
aS'DUNCKLEY'
p1173
aS'ST'
p1174
aS'PORTLAND'
p1175
aS'OR'
p1176
aS'97212'
p1177
aa(lp1178
S'3680'
p1179
aS'SE'
p1180
aS'TOLMAN'
p1181
aS'ST'
p1182
aS'PORTLAND'
p1183
aS'OR'
p1184
aS'97202'
p1185
aa(lp1186
S'2604'
p1187
aS'SE'
p1188
aS'30TH'
p1189
aS'AVE'
p1190
aS'PORTLAND'
p1191
aS'OR'
p1192
aS'97202'
p1193
aa(lp1194
S'218'
p1195
aS'NE'
p1196
aS'92ND'
p1197
aS'PL'
p1198
aS'PORTLAND'
p1199
aS'OR'
p1200
aS'97220'
p1201
aa(lp1202
S'2725'
p1203
aS'SE'
p1204
aS'136TH'
p1205
aS'PL'
p1206
aS'PORTLAND'
p1207
aS'OR'
p1208
aS'97236'
p1209
aa(lp1210
S'5306'
p1211
aS'NE'
p1212
aS'22ND'
p1213
aS'AVE'
p1214
aS'PORTLAND'
p1215
aS'OR'
p1216
aS'97211'
p1217
aa(lp1218
S'8118'
p1219
ag123
aS'MCKENNA'
p1220
aS'AVE'
p1221
aS'PORTLAND'
p1222
aS'OR'
p1223
aS'97203'
p1224
aa(lp1225
S'7700'
p1226
aS'NE'
p1227
aS'ALAMEDA'
p1228
aS'ST'
p1229
aS'PORTLAND'
p1230
aS'OR'
p1231
aS'97213'
p1232
aa(lp1233
S'17241'
p1234
aS'SE'
p1235
aS'FOSTER'
p1236
aS'RD'
p1237
aS'GRESHAM'
p1238
aS'OR'
p1239
aS'97080'
p1240
aa(lp1241
S'2774'
p1242
aS'SW'
p1243
aS'MOSS'
p1244
aS'ST'
p1245
aS'PORTLAND'
p1246
aS'OR'
p1247
aS'97219'
p1248
aa(lp1249
S'1628'
p1250
aS'NW'
p1251
aS'EVERETT'
p1252
aS'ST'
p1253
aS'PORTLAND'
p1254
aS'OR'
p1255
aS'97209'
p1256
aa(lp1257
S'5512'
p1258
aS'NE'
p1259
aS'MALLORY'
p1260
aS'AVE'
p1261
aS'PORTLAND'
p1262
aS'OR'
p1263
aS'97211'
p1264
aa(lp1265
S'7051'
p1266
aS'NE'
p1267
aS'6TH'
p1268
aS'AVE'
p1269
aS'PORTLAND'
p1270
aS'OR'
p1271
aS'97211'
p1272
aa(lp1273
S'4494'
p1274
aS'SW'
p1275
aS'BRITTANY'
p1276
aS'DR'
p1277
aS'GRESHAM'
p1278
aS'OR'
p1279
aS'97080'
p1280
aa(lp1281
S'2171'
p1282
aS'SW'
p1283
aS'EASTWOOD'
p1284
aS'AVE'
p1285
aS'GRESHAM'
p1286
aS'OR'
p1287
aS'97080'
p1288
aa(lp1289
S'1004'
p1290
aS'NE'
p1291
aS'76TH'
p1292
aS'AVE'
p1293
aS'PORTLAND'
p1294
aS'OR'
p1295
aS'97213'
p1296
aa(lp1297
S'5550-5564'
p1298
aS'SW'
p1299
aS'BEAVERTON HILLSDALE'
p1300
aS'HWY'
p1301
aS'PORTLAND'
p1302
aS'OR'
p1303
aS'97221'
p1304
aa(lp1305
S'2954'
p1306
aS'NE'
p1307
aS'FLANDERS'
p1308
aS'ST'
p1309
aS'PORTLAND'
p1310
aS'OR'
p1311
aS'97232'
p1312
aa(lp1313
S'1605'
p1314
aS'NE'
p1315
aS'HIGHLAND'
p1316
aS'ST'
p1317
aS'PORTLAND'
p1318
aS'OR'
p1319
aS'97211'
p1320
aa(lp1321
S'6222'
p1322
aS'SW'
p1323
aS'BARNES'
p1324
aS'RD'
p1325
aS'PORTLAND'
p1326
aS'OR'
p1327
aS'97221'
p1328
aa(lp1329
S'3956'
p1330
aS'SE'
p1331
aS'WOODWARD'
p1332
aS'ST'
p1333
aS'PORTLAND'
p1334
aS'OR'
p1335
aS'97202'
p1336
aa(lp1337
S'880'
p1338
aS'NW'
p1339
aS'8TH'
p1340
aS'ST'
p1341
aS'GRESHAM'
p1342
aS'OR'
p1343
aS'97030'
p1344
aa(lp1345
S'5623'
p1346
aS'SE'
p1347
aS'KNIGHT'
p1348
aS'ST'
p1349
aS'PORTLAND'
p1350
aS'OR'
p1351
aS'97206'
p1352
aa(lp1353
S'10606'
p1354
aS'SE'
p1355
aS'HAROLD'
p1356
aS'ST'
p1357
aS'PORTLAND'
p1358
aS'OR'
p1359
aS'97266'
p1360
aa(lp1361
S'4220'
p1362
aS'SE'
p1363
aS'FRANCIS'
p1364
aS'ST'
p1365
aS'PORTLAND'
p1366
aS'OR'
p1367
aS'97206'
p1368
aa(lp1369
S'1534'
p1370
aS'SE'
p1371
aS'YUKON'
p1372
aS'ST'
p1373
aS'PORTLAND'
p1374
aS'OR'
p1375
aS'97202'
p1376
aa(lp1377
S'5800'
p1378
aS'NE'
p1379
aS'COLUMBIA'
p1380
aS'BLVD'
p1381
aS'PORTLAND'
p1382
aS'OR'
p1383
aS'97218'
p1384
aa(lp1385
S'2936'
p1386
aS'SW'
p1387
aS'MULTNOMAH'
p1388
aS'BLVD'
p1389
aS'PORTLAND'
p1390
aS'OR'
p1391
aS'97219'
p1392
aa(lp1393
S'1511'
p1394
aS'NE'
p1395
aS'STANTON'
p1396
aS'ST'
p1397
aS'PORTLAND'
p1398
aS'OR'
p1399
aS'97212'
p1400
aa(lp1401
S'803'
p1402
aS'NE'
p1403
aS'78TH'
p1404
aS'AVE'
p1405
aS'PORTLAND'
p1406
aS'OR'
p1407
aS'97213'
p1408
aa(lp1409
S'9426'
p1410
ag123
aS'TRUMBULL'
p1411
aS'AVE'
p1412
aS'PORTLAND'
p1413
aS'OR'
p1414
aS'97203'
p1415
aa(lp1416
S'7508'
p1417
ag123
aS'HEREFORD'
p1418
aS'AVE'
p1419
aS'PORTLAND'
p1420
aS'OR'
p1421
aS'97203'
p1422
aa(lp1423
S'6520'
p1424
aS'NE'
p1425
aS'6TH'
p1426
aS'AVE'
p1427
aS'PORTLAND'
p1428
aS'OR'
p1429
aS'97211'
p1430
aa(lp1431
S'0901'
p1432
aS'SW'
p1433
aS'PALATINE HILL'
p1434
aS'RD'
p1435
aS'PORTLAND'
p1436
aS'OR'
p1437
aS'97219'
p1438
aa(lp1439
S'3952'
p1440
aS'NE'
p1441
aS'15TH'
p1442
aS'AVE'
p1443
aS'PORTLAND'
p1444
aS'OR'
p1445
aS'97212'
p1446
aa(lp1447
S'7615'
p1448
ag123
aS'LEONARD'
p1449
aS'ST'
p1450
aS'PORTLAND'
p1451
aS'OR'
p1452
aS'97203'
p1453
aa(lp1454
S'4284'
p1455
aS'SE'
p1456
aS'31ST'
p1457
aS'ST'
p1458
aS'GRESHAM'
p1459
aS'OR'
p1460
aS'97080'
p1461
aa(lp1462
S'1822'
p1463
aS'SW'
p1464
aS'3RD'
p1465
aS'DR'
p1466
aS'GRESHAM'
p1467
aS'OR'
p1468
aS'97080'
p1469
aa(lp1470
S'19827'
p1471
aS'NW'
p1472
aS'SAUVIE IS'
p1473
aS'RD'
p1474
aS'PORTLAND'
p1475
aS'OR'
p1476
aS'97231'
p1477
aa(lp1478
S'5250'
p1479
aS'SW'
p1480
aS'42ND'
p1481
aS'AVE'
p1482
aS'PORTLAND'
p1483
aS'OR'
p1484
aS'97221'
p1485
aa(lp1486
S'2125'
p1487
aS'SW'
p1488
aS'21ST'
p1489
aS'AVE'
p1490
aS'PORTLAND'
p1491
aS'OR'
p1492
aS'97201'
p1493
aa(lp1494
S'3229'
p1495
aS'SE'
p1496
aS'9TH'
p1497
aS'AVE'
p1498
aS'PORTLAND'
p1499
aS'OR'
p1500
aS'97202'
p1501
aa(lp1502
S'4624'
p1503
ag123
aS'WILLIAMS'
p1504
aS'AVE'
p1505
aS'PORTLAND'
p1506
aS'OR'
p1507
aS'97217'
p1508
aa(lp1509
S'6262'
p1510
aS'SW'
p1511
aS'BURLINGAME'
p1512
aS'AVE'
p1513
aS'PORTLAND'
p1514
aS'OR'
p1515
aS'97239'
p1516
aa(lp1517
S'2722'
p1518
aS'NE'
p1519
aS'JUNIPER'
p1520
aS'CT'
p1521
aS'GRESHAM'
p1522
aS'OR'
p1523
aS'97030'
p1524
aa(lp1525
S'9034'
p1526
ag123
aS'POLK'
p1527
aS'AVE'
p1528
aS'PORTLAND'
p1529
aS'OR'
p1530
aS'97203'
p1531
aa(lp1532
S'4442'
p1533
aS'SE'
p1534
aS'BYBEE'
p1535
aS'BLVD'
p1536
aS'PORTLAND'
p1537
aS'OR'
p1538
aS'97206'
p1539
aa(lp1540
S'7684'
p1541
ag123
aS'MISSISSIPPI'
p1542
aS'AVE'
p1543
aS'PORTLAND'
p1544
aS'OR'
p1545
aS'97217'
p1546
aa(lp1547
S'2145'
p1548
aS'SE'
p1549
aS'59TH'
p1550
aS'AVE'
p1551
aS'PORTLAND'
p1552
aS'OR'
p1553
aS'97215'
p1554
aa(lp1555
S'3434'
p1556
aS'SW'
p1557
aS'LURADEL'
p1558
aS'ST'
p1559
aS'PORTLAND'
p1560
aS'OR'
p1561
aS'97219'
p1562
aa(lp1563
S'1819'
p1564
aS'SE'
p1565
aS'32ND'
p1566
aS'PL'
p1567
aS'PORTLAND'
p1568
aS'OR'
p1569
aS'97214'
p1570
aa(lp1571
S'1230'
p1572
aS'NW'
p1573
aS'DIVISION'
p1574
aS'ST'
p1575
aS'GRESHAM'
p1576
aS'OR'
p1577
aS'97030'
p1578
aa(lp1579
S'4024'
p1580
aS'NE'
p1581
aS'77TH'
p1582
aS'AVE'
p1583
aS'PORTLAND'
p1584
aS'OR'
p1585
aS'97213'
p1586
aa(lp1587
S'3622'
p1588
aS'SE'
p1589
aS'NEHALEM'
p1590
aS'ST'
p1591
aS'PORTLAND'
p1592
aS'OR'
p1593
aS'97202'
p1594
aa(lp1595
S'3211'
p1596
aS'SE'
p1597
aS'FRANKLIN'
p1598
aS'ST'
p1599
aS'PORTLAND'
p1600
aS'OR'
p1601
aS'97202'
p1602
aa(lp1603
S'45'
p1604
aS'NW'
p1605
aS'BURNSIDE'
p1606
aS'RD'
p1607
aS'GRESHAM'
p1608
aS'OR'
p1609
aS'97030'
p1610
aa(lp1611
S'3445'
p1612
aS'SE'
p1613
aS'BLAKE'
p1614
aS'PL'
p1615
aS'TROUTDALE'
p1616
aS'OR'
p1617
aS'97060'
p1618
aa(lp1619
S'1504'
p1620
aS'NW'
p1621
aS'16TH'
p1622
aS'AVE'
p1623
aS'PORTLAND'
p1624
aS'OR'
p1625
aS'97209'
p1626
aa(lp1627
S'2351'
p1628
aS'NW'
p1629
aS'WESTOVER'
p1630
aS'RD'
p1631
aS'PORTLAND'
p1632
aS'OR'
p1633
aS'97210'
p1634
aa(lp1635
S'6570'
p1636
ag123
aS'TYLER'
p1637
aS'AVE'
p1638
aS'PORTLAND'
p1639
aS'OR'
p1640
aS'97203'
p1641
aa(lp1642
S'4615'
p1643
aS'SE'
p1644
aS'WELCH'
p1645
aS'RD'
p1646
aS'GRESHAM'
p1647
aS'OR'
p1648
aS'97080'
p1649
aa(lp1650
S'142'
p1651
aS'NE'
p1652
aS'92ND'
p1653
aS'PL'
p1654
aS'PORTLAND'
p1655
aS'OR'
p1656
aS'97220'
p1657
aa(lp1658
S'1830'
p1659
aS'NW'
p1660
aS'19TH'
p1661
aS'AVE'
p1662
aS'PORTLAND'
p1663
aS'OR'
p1664
aS'97209'
p1665
aa(lp1666
S'4256-4258'
p1667
aS'NE'
p1668
aS'8TH'
p1669
aS'ST'
p1670
aS'GRESHAM'
p1671
aS'OR'
p1672
aS'97030'
p1673
aa(lp1674
S'4106'
p1675
aS'NE'
p1676
aS'133RD'
p1677
aS'AVE'
p1678
aS'PORTLAND'
p1679
aS'OR'
p1680
aS'97230'
p1681
aa(lp1682
S'7373'
p1683
aS'SE'
p1684
aS'PLEASANT HOME'
p1685
aS'RD'
p1686
aS'GRESHAM'
p1687
aS'OR'
p1688
aS'97080'
p1689
aa(lp1690
S'4216'
p1691
ag123
aS'MISSISSIPPI'
p1692
aS'AVE'
p1693
aS'PORTLAND'
p1694
aS'OR'
p1695
aS'97217'
p1696
aa(lp1697
S'8430'
p1698
ag123
aS'FESSENDEN'
p1699
aS'ST'
p1700
aS'PORTLAND'
p1701
aS'OR'
p1702
aS'97203'
p1703
aa(lp1704
S'4811'
p1705
aS'SE'
p1706
aS'CHASE'
p1707
aS'RD'
p1708
aS'GRESHAM'
p1709
aS'OR'
p1710
aS'97080'
p1711
aa(lp1712
S'5030'
p1713
aS'SE'
p1714
aS'MILL'
p1715
aS'ST'
p1716
aS'PORTLAND'
p1717
aS'OR'
p1718
aS'97215'
p1719
aa(lp1720
S'4102'
p1721
aS'SE'
p1722
aS'POWELL'
p1723
aS'BLVD'
p1724
aS'PORTLAND'
p1725
aS'OR'
p1726
aS'97202'
p1727
aa(lp1728
S'3610'
p1729
aS'SE'
p1730
aS'49TH'
p1731
aS'AVE'
p1732
aS'PORTLAND'
p1733
aS'OR'
p1734
aS'97206'
p1735
aa(lp1736
S'5934'
p1737
ag123
aS'BORTHWICK'
p1738
aS'AVE'
p1739
aS'PORTLAND'
p1740
aS'OR'
p1741
aS'97217'
p1742
aa(lp1743
S'17010'
p1744
aS'NW'
p1745
aS'SKYLINE'
p1746
aS'BLVD'
p1747
aS'PORTLAND'
p1748
aS'OR'
p1749
aS'97231'
p1750
aa(lp1751
S'1410'
p1752
aS'NW'
p1753
aS'KEARNEY'
p1754
aS'ST'
p1755
aS'PORTLAND'
p1756
aS'OR'
p1757
aS'97209'
p1758
aa(lp1759
S'1455'
p1760
ag123
aS'KILLINGSWORTH'
p1761
aS'ST'
p1762
aS'PORTLAND'
p1763
aS'OR'
p1764
aS'97217'
p1765
aa(lp1766
S'1467'
p1767
aS'SE'
p1768
aS'26TH'
p1769
aS'DR'
p1770
aS'GRESHAM'
p1771
aS'OR'
p1772
aS'97080'
p1773
aa(lp1774
S'5200'
p1775
aS'SW'
p1776
aS'RICHARDSON'
p1777
aS'DR'
p1778
aS'PORTLAND'
p1779
aS'OR'
p1780
aS'97239'
p1781
aa(lp1782
S'11905'
p1783
aS'NE'
p1784
aS'KNOTT'
p1785
aS'ST'
p1786
aS'PORTLAND'
p1787
aS'OR'
p1788
aS'97220'
p1789
aa(lp1790
S'5825'
p1791
ag123
aS'BOSTON'
p1792
aS'AVE'
p1793
aS'PORTLAND'
p1794
aS'OR'
p1795
aS'97217'
p1796
aa(lp1797
S'525'
p1798
ag123
aS'BALDWIN'
p1799
aS'ST'
p1800
aS'PORTLAND'
p1801
aS'OR'
p1802
aS'97217'
p1803
aa(lp1804
S'6005'
p1805
ag123
aS'MISSISSIPPI'
p1806
aS'AVE'
p1807
aS'PORTLAND'
p1808
aS'OR'
p1809
aS'97217'
p1810
aa(lp1811
S'1721'
p1812
aS'SE'
p1813
aS'37TH'
p1814
aS'AVE'
p1815
aS'PORTLAND'
p1816
aS'OR'
p1817
aS'97214'
p1818
aa(lp1819
S'8915'
p1820
aS'NE'
p1821
aS'FREMONT'
p1822
aS'ST'
p1823
aS'PORTLAND'
p1824
aS'OR'
p1825
aS'97220'
p1826
aa(lp1827
S'5405'
p1828
aS'SE'
p1829
aS'111TH'
p1830
aS'AVE'
p1831
aS'PORTLAND'
p1832
aS'OR'
p1833
aS'97266'
p1834
aa(lp1835
S'816-818'
p1836
aS'SE'
p1837
aS'CESAR E CHAVEZ'
p1838
aS'BLVD'
p1839
aS'PORTLAND'
p1840
aS'OR'
p1841
aS'97214'
p1842
aa(lp1843
S'5103-5105'
p1844
aS'NE'
p1845
aS'14TH'
p1846
aS'PL'
p1847
aS'PORTLAND'
p1848
aS'OR'
p1849
aS'97211'
p1850
aa(lp1851
S'3425'
p1852
aS'SW'
p1853
aS'11TH'
p1854
aS'AVE'
p1855
aS'PORTLAND'
p1856
aS'OR'
p1857
aS'97239'
p1858
aa(lp1859
S'3585'
p1860
aS'SE'
p1861
aS'FRANKLIN'
p1862
aS'ST'
p1863
aS'PORTLAND'
p1864
aS'OR'
p1865
aS'97202'
p1866
aa(lp1867
S'213'
p1868
aS'NE'
p1869
aS'117TH'
p1870
aS'AVE'
p1871
aS'PORTLAND'
p1872
aS'OR'
p1873
aS'97220'
p1874
aa(lp1875
S'3028'
p1876
aS'SE'
p1877
aS'92ND'
p1878
aS'AVE'
p1879
aS'PORTLAND'
p1880
aS'OR'
p1881
aS'97266'
p1882
aa(lp1883
S'1424'
p1884
aS'SW'
p1885
aS'DOLPH'
p1886
aS'ST'
p1887
aS'PORTLAND'
p1888
aS'OR'
p1889
aS'97219'
p1890
aa(lp1891
S'8226'
p1892
aS'NE'
p1893
aS'EUGENE'
p1894
aS'ST'
p1895
aS'PORTLAND'
p1896
aS'OR'
p1897
aS'97220'
p1898
aa(lp1899
S'3117'
p1900
aS'SE'
p1901
aS'PALOMA'
p1902
aS'AVE'
p1903
aS'GRESHAM'
p1904
aS'OR'
p1905
aS'97080'
p1906
aa(lp1907
S'1253'
p1908
aS'NE'
p1909
aS'HALE'
p1910
aS'PL'
p1911
aS'GRESHAM'
p1912
aS'OR'
p1913
aS'97030'
p1914
aa(lp1915
S'9003'
p1916
aS'SE'
p1917
aS'MARKET'
p1918
aS'ST'
p1919
aS'PORTLAND'
p1920
aS'OR'
p1921
aS'97216'
p1922
aa(lp1923
S'4742'
p1924
aS'SE'
p1925
aS'37TH'
p1926
aS'AVE'
p1927
aS'PORTLAND'
p1928
aS'OR'
p1929
aS'97202'
p1930
aa(lp1931
S'15805'
p1932
aS'NE'
p1933
aS'SCHUYLER'
p1934
aS'ST'
p1935
aS'PORTLAND'
p1936
aS'OR'
p1937
aS'97230'
p1938
aa(lp1939
S'376'
p1940
aS'SE'
p1941
aS'2ND'
p1942
aS'ST'
p1943
aS'TROUTDALE'
p1944
aS'OR'
p1945
aS'97060'
p1946
aa(lp1947
S'3146'
p1948
aS'NE'
p1949
aS'58TH'
p1950
aS'AVE'
p1951
aS'PORTLAND'
p1952
aS'OR'
p1953
aS'97213'
p1954
aa(lp1955
S'4111'
p1956
aS'SE'
p1957
aS'ASH'
p1958
aS'ST'
p1959
aS'PORTLAND'
p1960
aS'OR'
p1961
aS'97214'
p1962
aa(lp1963
S'1148'
p1964
aS'SW'
p1965
aS'10TH'
p1966
aS'PL'
p1967
aS'GRESHAM'
p1968
aS'OR'
p1969
aS'97080'
p1970
aa(lp1971
S'7644'
p1972
aS'SE'
p1973
aS'TAGGART'
p1974
aS'CT'
p1975
aS'PORTLAND'
p1976
aS'OR'
p1977
aS'97206'
p1978
aa(lp1979
S'8454'
p1980
aS'SE'
p1981
aS'77TH'
p1982
aS'AVE'
p1983
aS'PORTLAND'
p1984
aS'OR'
p1985
aS'97206'
p1986
aa(lp1987
S'2857'
p1988
aS'SW'
p1989
aS'ROYAL'
p1990
aS'WAY'
p1991
aS'GRESHAM'
p1992
aS'OR'
p1993
aS'97080'
p1994
aa(lp1995
S'1389'
p1996
aS'SW'
p1997
aS'22ND'
p1998
aS'TER'
p1999
aS'GRESHAM'
p2000
aS'OR'
p2001
aS'97080'
p2002
aa(lp2003
S'605'
p2004
aS'NE'
p2005
aS'19TH'
p2006
aS'ST'
p2007
aS'GRESHAM'
p2008
aS'OR'
p2009
aS'97030'
p2010
aa(lp2011
S'2835'
p2012
aS'NE'
p2013
aS'11TH'
p2014
aS'AVE'
p2015
aS'PORTLAND'
p2016
aS'OR'
p2017
aS'97212'
p2018
aa(lp2019
S'21713'
p2020
aS'SE'
p2021
aS'OAK'
p2022
aS'ST'
p2023
aS'GRESHAM'
p2024
aS'OR'
p2025
aS'97030'
p2026
aa(lp2027
S'616'
p2028
aS'SE'
p2029
aS'38TH'
p2030
aS'AVE'
p2031
aS'PORTLAND'
p2032
aS'OR'
p2033
aS'97214'
p2034
aa(lp2035
S'2631'
p2036
aS'SW'
p2037
aS'TROY'
p2038
aS'ST'
p2039
aS'PORTLAND'
p2040
aS'OR'
p2041
aS'97219'
p2042
aa(lp2043
S'5703'
p2044
aS'NE'
p2045
aS'59TH'
p2046
aS'AVE'
p2047
aS'PORTLAND'
p2048
aS'OR'
p2049
aS'97218'
p2050
aa(lp2051
S'4312'
p2052
aS'NE'
p2053
aS'WYGANT'
p2054
aS'ST'
p2055
aS'PORTLAND'
p2056
aS'OR'
p2057
aS'97218'
p2058
aa(lp2059
S'5249'
p2060
aS'SE'
p2061
aS'16TH'
p2062
aS'DR'
p2063
aS'GRESHAM'
p2064
aS'OR'
p2065
aS'97080'
p2066
aa(lp2067
S'923'
p2068
aS'NE'
p2069
aS'68TH'
p2070
aS'AVE'
p2071
aS'PORTLAND'
p2072
aS'OR'
p2073
aS'97213'
p2074
aa(lp2075
S'12626'
p2076
aS'SW'
p2077
aS'64TH'
p2078
aS'AVE'
p2079
aS'PORTLAND'
p2080
aS'OR'
p2081
aS'97219'
p2082
aa(lp2083
S'1745'
p2084
aS'SE'
p2085
aS'27TH'
p2086
aS'CT'
p2087
aS'GRESHAM'
p2088
aS'OR'
p2089
aS'97080'
p2090
aa(lp2091
S'6503'
p2092
aS'SE'
p2093
aS'40TH'
p2094
aS'AVE'
p2095
aS'PORTLAND'
p2096
aS'OR'
p2097
aS'97202'
p2098
aa(lp2099
S'2618'
p2100
aS'NE'
p2101
aS'DEKUM'
p2102
aS'ST'
p2103
aS'PORTLAND'
p2104
aS'OR'
p2105
aS'97211'
p2106
aa(lp2107
S'2728'
p2108
aS'SW'
p2109
aS'SHERWOOD'
p2110
aS'DR'
p2111
aS'PORTLAND'
p2112
aS'OR'
p2113
aS'97201'
p2114
aa(lp2115
S'2136'
p2116
aS'SE'
p2117
aS'177TH'
p2118
aS'AVE'
p2119
aS'GRESHAM'
p2120
aS'OR'
p2121
aS'97233'
p2122
aa(lp2123
S'905'
p2124
aS'NW'
p2125
aS'8TH'
p2126
aS'ST'
p2127
aS'GRESHAM'
p2128
aS'OR'
p2129
aS'97030'
p2130
aa(lp2131
S'1825'
p2132
aS'SE'
p2133
aS'31ST'
p2134
aS'AVE'
p2135
aS'PORTLAND'
p2136
aS'OR'
p2137
aS'97214'
p2138
aa(lp2139
S'605'
p2140
aS'NE'
p2141
aS'157TH'
p2142
aS'AVE'
p2143
aS'PORTLAND'
p2144
aS'OR'
p2145
aS'97230'
p2146
aa(lp2147
S'16315'
p2148
aS'SE'
p2149
aS'MAIN'
p2150
aS'ST'
p2151
aS'PORTLAND'
p2152
aS'OR'
p2153
aS'97233'
p2154
aa(lp2155
S'14169'
p2156
aS'NE'
p2157
aS'FLANDERS'
p2158
aS'CT'
p2159
aS'PORTLAND'
p2160
aS'OR'
p2161
aS'97230'
p2162
aa(lp2163
S'1632'
p2164
aS'SW'
p2165
aS'CANBY'
p2166
aS'ST'
p2167
aS'PORTLAND'
p2168
aS'OR'
p2169
aS'97219'
p2170
aa(lp2171
S'1200'
p2172
aS'NE'
p2173
aS'160TH'
p2174
aS'AVE'
p2175
aS'PORTLAND'
p2176
aS'OR'
p2177
aS'97230'
p2178
aa(lp2179
S'925'
p2180
aS'NE'
p2181
aS'68TH'
p2182
aS'AVE'
p2183
aS'PORTLAND'
p2184
aS'OR'
p2185
aS'97213'
p2186
aa(lp2187
S'3791-3793'
p2188
aS'NE'
p2189
aS'DIVISION'
p2190
aS'ST'
p2191
aS'GRESHAM'
p2192
aS'OR'
p2193
aS'97030'
p2194
aa(lp2195
S'3820'
p2196
aS'SW'
p2197
aS'DAKOTA'
p2198
aS'ST'
p2199
aS'PORTLAND'
p2200
aS'OR'
p2201
aS'97221'
p2202
aa(lp2203
S'19330'
p2204
aS'NW'
p2205
aS'GILLIHAN'
p2206
aS'RD'
p2207
aS'PORTLAND'
p2208
aS'OR'
p2209
aS'97231'
p2210
aa(lp2211
S'8637'
p2212
aS'NE'
p2213
aS'SACRAMENTO'
p2214
aS'ST'
p2215
aS'PORTLAND'
p2216
aS'OR'
p2217
aS'97220'
p2218
aa(lp2219
S'4836'
p2220
aS'SE'
p2221
aS'65TH'
p2222
aS'AVE'
p2223
aS'PORTLAND'
p2224
aS'OR'
p2225
aS'97206'
p2226
aa(lp2227
S'658'
p2228
aS'SE'
p2229
aS'MYRTLEWOOD'
p2230
aS'PL'
p2231
aS'GRESHAM'
p2232
aS'OR'
p2233
aS'97080'
p2234
aa(lp2235
S'1132'
p2236
aS'SW'
p2237
aS'19TH'
p2238
aS'AVE'
p2239
aS'PORTLAND'
p2240
aS'OR'
p2241
aS'97205'
p2242
aa(lp2243
S'5118'
p2244
aS'SE'
p2245
aS'52ND'
p2246
aS'AVE'
p2247
aS'PORTLAND'
p2248
aS'OR'
p2249
aS'97206'
p2250
aa(lp2251
S'1234'
p2252
aS'SW'
p2253
aS'18TH'
p2254
aS'AVE'
p2255
aS'PORTLAND'
p2256
aS'OR'
p2257
aS'97205'
p2258
aa(lp2259
S'936'
p2260
aS'NE'
p2261
aS'197TH'
p2262
aS'AVE'
p2263
aS'GRESHAM'
p2264
aS'OR'
p2265
aS'97230'
p2266
aa(lp2267
S'7410'
p2268
aS'SW'
p2269
aS'CAPITOL HILL'
p2270
aS'RD'
p2271
aS'PORTLAND'
p2272
aS'OR'
p2273
aS'97219'
p2274
aa(lp2275
S'6326'
p2276
aS'SE'
p2277
aS'MITCHELL'
p2278
aS'ST'
p2279
aS'PORTLAND'
p2280
aS'OR'
p2281
aS'97206'
p2282
aa(lp2283
S'46249-46319'
p2284
ag1052
aS'HIST COLUMBIA RIVER'
p2285
aS'HWY'
p2286
aS'CORBETT'
p2287
aS'OR'
p2288
aS'97019'
p2289
aa(lp2290
S'6235'
p2291
aS'SE'
p2292
aS'WOODSTOCK'
p2293
aS'BLVD'
p2294
aS'PORTLAND'
p2295
aS'OR'
p2296
aS'97206'
p2297
aa(lp2298
S'911'
p2299
ag123
aS'TERRY'
p2300
aS'ST'
p2301
aS'PORTLAND'
p2302
aS'OR'
p2303
aS'97217'
p2304
aa(lp2305
S'3545-3555'
p2306
aS'NE'
p2307
aS'8TH'
p2308
aS'ST'
p2309
aS'GRESHAM'
p2310
aS'OR'
p2311
aS'97030'
p2312
aa(lp2313
S'635'
p2314
ag123
aS'TOMAHAWK IS'
p2315
aS'DR'
p2316
aS'PORTLAND'
p2317
aS'OR'
p2318
aS'97217'
p2319
aa(lp2320
S'8556'
p2321
aS'NE'
p2322
aS'BEECH'
p2323
aS'ST'
p2324
aS'PORTLAND'
p2325
aS'OR'
p2326
aS'97220'
p2327
aa(lp2328
S'9336'
p2329
ag123
aS'LOMBARD'
p2330
aS'ST'
p2331
aS'PORTLAND'
p2332
aS'OR'
p2333
aS'97203'
p2334
aa(lp2335
S'4918'
p2336
aS'SE'
p2337
aS'60TH'
p2338
aS'AVE'
p2339
aS'PORTLAND'
p2340
aS'OR'
p2341
aS'97206'
p2342
aa(lp2343
S'1715'
p2344
aS'NW'
p2345
aS'26TH'
p2346
aS'AVE'
p2347
aS'PORTLAND'
p2348
aS'OR'
p2349
aS'97210'
p2350
aa(lp2351
S'11907'
p2352
aS'SE'
p2353
aS'LEXINGTON'
p2354
aS'ST'
p2355
aS'PORTLAND'
p2356
aS'OR'
p2357
aS'97266'
p2358
aa(lp2359
S'1213'
p2360
aS'NE'
p2361
aS'BEECH'
p2362
aS'ST'
p2363
aS'PORTLAND'
p2364
aS'OR'
p2365
aS'97212'
p2366
aa(lp2367
S'5479 WI/'
p2368
ag123
aS'MARINE'
p2369
aS'DR'
p2370
aS'PORTLAND'
p2371
aS'OR'
p2372
aS'97203'
p2373
aa(lp2374
S'2374'
p2375
aS'NW'
p2376
aS'LOVEJOY'
p2377
aS'ST'
p2378
aS'PORTLAND'
p2379
aS'OR'
p2380
aS'97210'
p2381
aa(lp2382
S'2206'
p2383
aS'SE'
p2384
aS'CARUTHERS'
p2385
aS'ST'
p2386
aS'PORTLAND'
p2387
aS'OR'
p2388
aS'97214'
p2389
aa(lp2390
S'2715'
p2391
aS'NE'
p2392
aS'JARRETT'
p2393
aS'ST'
p2394
aS'PORTLAND'
p2395
aS'OR'
p2396
aS'97211'
p2397
aa(lp2398
S'4212 WI/'
p2399
ag250
aS'NE'
p2400
aS'BROADWAY'
p2401
aS'PORTLAND'
p2402
aS'OR'
p2403
aS'97213'
p2404
aa(lp2405
S'3414'
p2406
aS'NW'
p2407
aS'VAUGHN'
p2408
aS'ST'
p2409
aS'PORTLAND'
p2410
aS'OR'
p2411
aS'97210'
p2412
aa(lp2413
S'3318-3322'
p2414
aS'SE'
p2415
aS'129TH'
p2416
aS'AVE'
p2417
aS'PORTLAND'
p2418
aS'OR'
p2419
aS'97236'
p2420
aa(lp2421
S'8704'
p2422
ag123
aS'WOOLSEY'
p2423
aS'AVE'
p2424
aS'PORTLAND'
p2425
aS'OR'
p2426
aS'97203'
p2427
aa(lp2428
S'1568'
p2429
aS'NE'
p2430
aS'VISTA'
p2431
aS'WAY'
p2432
aS'GRESHAM'
p2433
aS'OR'
p2434
aS'97030'
p2435
aa(lp2436
S'3455'
p2437
aS'NE'
p2438
aS'36TH'
p2439
aS'AVE'
p2440
aS'PORTLAND'
p2441
aS'OR'
p2442
aS'97212'
p2443
aa(lp2444
S'14130'
p2445
aS'NE'
p2446
aS'GLISAN'
p2447
aS'ST'
p2448
aS'PORTLAND'
p2449
aS'OR'
p2450
aS'97230'
p2451
aa(lp2452
S'1590'
p2453
aS'NE'
p2454
aS'BURNSIDE'
p2455
aS'RD'
p2456
aS'GRESHAM'
p2457
aS'OR'
p2458
aS'97030'
p2459
aa(lp2460
S'25539 WI/'
p2461
aS'NW'
p2462
aS'ST HELENS'
p2463
aS'RD'
p2464
aS'SCAPPOOSE'
p2465
aS'OR'
p2466
aS'97056'
p2467
aa(lp2468
S'6112'
p2469
aS'NE'
p2470
aS'PRESCOTT'
p2471
aS'ST'
p2472
aS'PORTLAND'
p2473
aS'OR'
p2474
aS'97218'
p2475
aa(lp2476
S'6908 WI/'
p2477
aS'SE'
p2478
aS'BROOKLYN'
p2479
aS'ST'
p2480
aS'PORTLAND'
p2481
aS'OR'
p2482
aS'97206'
p2483
aa(lp2484
S'8000-8002'
p2485
aS'SE'
p2486
aS'13TH'
p2487
aS'AVE'
p2488
aS'PORTLAND'
p2489
aS'OR'
p2490
aS'97202'
p2491
aa(lp2492
S'11544 S/'
p2493
aS'NE'
p2494
aS'GLISAN'
p2495
aS'ST'
p2496
aS'PORTLAND'
p2497
aS'OR'
p2498
aS'97220'
p2499
aa(lp2500
S'8146'
p2501
aS'SE'
p2502
aS'75TH'
p2503
aS'PL'
p2504
aS'PORTLAND'
p2505
aS'OR'
p2506
aS'97206'
p2507
aa(lp2508
S'2427'
p2509
aS'NE'
p2510
aS'FLEMING'
p2511
aS'TER'
p2512
aS'GRESHAM'
p2513
aS'OR'
p2514
aS'97030'
p2515
aa(lp2516
S'1526'
p2517
ag123
aS'HOLMAN'
p2518
aS'ST'
p2519
aS'PORTLAND'
p2520
aS'OR'
p2521
aS'97217'
p2522
aa(lp2523
S'215 WI/'
p2524
ag123
aS'PAGE'
p2525
aS'ST'
p2526
aS'PORTLAND'
p2527
aS'OR'
p2528
aS'97227'
p2529
aa(lp2530
S'900-910'
p2531
aS'NE'
p2532
aS'52ND'
p2533
aS'AVE'
p2534
aS'PORTLAND'
p2535
aS'OR'
p2536
aS'97213'
p2537
aa(lp2538
S'10114'
p2539
ag123
aS'JAMES'
p2540
aS'ST'
p2541
aS'PORTLAND'
p2542
aS'OR'
p2543
aS'97203'
p2544
aa(lp2545
S'20918'
p2546
aS'NE'
p2547
aS'SANDY'
p2548
aS'RD'
p2549
aS'FAIRVIEW'
p2550
aS'OR'
p2551
aS'97024'
p2552
aa(lp2553
S'7219'
p2554
ag123
aS'TYLER'
p2555
aS'AVE'
p2556
aS'PORTLAND'
p2557
aS'OR'
p2558
aS'97203'
p2559
aa(lp2560
S'6600'
p2561
aS'SE'
p2562
aS'DIVISION'
p2563
aS'ST'
p2564
aS'PORTLAND'
p2565
aS'OR'
p2566
aS'97206'
p2567
aa(lp2568
S'8226'
p2569
aS'NW'
p2570
aS'HAWKINS'
p2571
aS'BLVD'
p2572
aS'PORTLAND'
p2573
aS'OR'
p2574
aS'97229'
p2575
aa(lp2576
S'15715'
p2577
aS'SE'
p2578
aS'CLATSOP'
p2579
aS'ST'
p2580
aS'PORTLAND'
p2581
aS'OR'
p2582
aS'97236'
p2583
aa(lp2584
S'3265 W/'
p2585
aS'SW'
p2586
aS'SHERWOOD'
p2587
aS'PL'
p2588
aS'PORTLAND'
p2589
aS'OR'
p2590
aS'97239'
p2591
aa(lp2592
S'6425'
p2593
ag123
aS'CURTIS'
p2594
aS'AVE'
p2595
aS'PORTLAND'
p2596
aS'OR'
p2597
aS'97217'
p2598
aa(lp2599
S'12871'
p2600
aS'SE'
p2601
aS'SHERMAN'
p2602
aS'ST'
p2603
aS'PORTLAND'
p2604
aS'OR'
p2605
aS'97233'
p2606
aa(lp2607
S'7114'
p2608
ag123
aS'OMAHA'
p2609
aS'AVE'
p2610
aS'PORTLAND'
p2611
aS'OR'
p2612
aS'97217'
p2613
aa(lp2614
S'3510'
p2615
aS'SE'
p2616
aS'128TH'
p2617
aS'AVE'
p2618
aS'PORTLAND'
p2619
aS'OR'
p2620
aS'97236'
p2621
aa(lp2622
S'770'
p2623
aS'SW'
p2624
aS'ORCHARD'
p2625
aS'PL'
p2626
aS'GRESHAM'
p2627
aS'OR'
p2628
aS'97080'
p2629
aa(lp2630
S'4233'
p2631
aS'NE'
p2632
aS'JARRETT'
p2633
aS'ST'
p2634
aS'PORTLAND'
p2635
aS'OR'
p2636
aS'97218'
p2637
aa(lp2638
S'4056'
p2639
aS'SE'
p2640
aS'30TH'
p2641
aS'ST'
p2642
aS'GRESHAM'
p2643
aS'OR'
p2644
aS'97080'
p2645
aa(lp2646
S'357'
p2647
aS'NE'
p2648
aS'BRYANT'
p2649
aS'ST'
p2650
aS'PORTLAND'
p2651
aS'OR'
p2652
aS'97211'
p2653
aa(lp2654
S'4944'
p2655
aS'SE'
p2656
aS'FLAVEL'
p2657
aS'DR'
p2658
aS'PORTLAND'
p2659
aS'OR'
p2660
aS'97206'
p2661
aa(lp2662
S'6213'
p2663
aS'NE'
p2664
aS'36TH'
p2665
aS'AVE'
p2666
aS'PORTLAND'
p2667
aS'OR'
p2668
aS'97211'
p2669
aa(lp2670
S'6216'
p2671
aS'SE'
p2672
aS'19TH'
p2673
aS'AVE'
p2674
aS'PORTLAND'
p2675
aS'OR'
p2676
aS'97202'
p2677
aa(lp2678
S'5892'
p2679
aS'SE'
p2680
aS'17TH'
p2681
aS'LOOP'
p2682
aS'GRESHAM'
p2683
aS'OR'
p2684
aS'97080'
p2685
aa(lp2686
S'2340'
p2687
aS'SW'
p2688
aS'15TH'
p2689
aS'ST'
p2690
aS'GRESHAM'
p2691
aS'OR'
p2692
aS'97080'
p2693
aa(lp2694
S'24'
p2695
aS'SE'
p2696
aS'85TH'
p2697
aS'AVE'
p2698
aS'PORTLAND'
p2699
aS'OR'
p2700
aS'97216'
p2701
aa(lp2702
S'700'
p2703
aS'SW'
p2704
aS'EASTMAN'
p2705
aS'PKWY'
p2706
aS'GRESHAM'
p2707
aS'OR'
p2708
aS'97080'
p2709
aa(lp2710
S'1826'
p2711
aS'NE'
p2712
aS'GERTZ'
p2713
aS'RD'
p2714
aS'PORTLAND'
p2715
aS'OR'
p2716
aS'97211'
p2717
aa(lp2718
S'10019'
p2719
aS'SW'
p2720
aS'BALMER'
p2721
aS'CIR'
p2722
aS'PORTLAND'
p2723
aS'OR'
p2724
aS'97219'
p2725
aa(lp2726
S'4344'
p2727
aS'SE'
p2728
aS'29TH'
p2729
aS'AVE'
p2730
aS'PORTLAND'
p2731
aS'OR'
p2732
aS'97202'
p2733
aa(lp2734
S'2961'
p2735
aS'SE'
p2736
aS'64TH'
p2737
aS'AVE'
p2738
aS'PORTLAND'
p2739
aS'OR'
p2740
aS'97206'
p2741
aa(lp2742
S'3325'
p2743
aS'NE'
p2744
aS'145TH'
p2745
aS'AVE'
p2746
aS'PORTLAND'
p2747
aS'OR'
p2748
aS'97230'
p2749
aa(lp2750
S'1205'
p2751
aS'NE'
p2752
aS'RUSSET'
p2753
aS'ST'
p2754
aS'PORTLAND'
p2755
aS'OR'
p2756
aS'97211'
p2757
aa(lp2758
S'7133'
p2759
aS'SE'
p2760
aS'HOLGATE'
p2761
aS'BLVD'
p2762
aS'PORTLAND'
p2763
aS'OR'
p2764
aS'97206'
p2765
aa(lp2766
S'4764'
p2767
aS'SE'
p2768
aS'15TH'
p2769
aS'ST'
p2770
aS'GRESHAM'
p2771
aS'OR'
p2772
aS'97080'
p2773
aa(lp2774
S'2748'
p2775
aS'NE'
p2776
aS'11TH'
p2777
aS'AVE'
p2778
aS'PORTLAND'
p2779
aS'OR'
p2780
aS'97212'
p2781
aa(lp2782
S'0117'
p2783
aS'SW'
p2784
aS'ARTHUR'
p2785
aS'ST'
p2786
aS'PORTLAND'
p2787
aS'OR'
p2788
aS'97201'
p2789
aa(lp2790
S'2006'
p2791
aS'SE'
p2792
aS'MORRISON'
p2793
aS'ST'
p2794
aS'PORTLAND'
p2795
aS'OR'
p2796
aS'97214'
p2797
aa(lp2798
S'607'
p2799
aS'NE'
p2800
aS'32ND'
p2801
aS'AVE'
p2802
aS'PORTLAND'
p2803
aS'OR'
p2804
aS'97232'
p2805
aa(lp2806
S'13114'
p2807
aS'NE'
p2808
aS'41ST'
p2809
aS'ST'
p2810
aS'VANCOUVER'
p2811
aS'WA'
p2812
aS'98682'
p2813
aa(lp2814
S'3203'
p2815
ag250
aS'K'
p2816
aS'ST'
p2817
aS'VANCOUVER'
p2818
aS'WA'
p2819
aS'98663'
p2820
aa(lp2821
S'739'
p2822
ag250
ag1052
aS'ST'
p2823
aS'WASHOUGAL'
p2824
aS'WA'
p2825
aS'98671'
p2826
aa(lp2827
S'9511'
p2828
aS'NE'
p2829
aS'47TH'
p2830
aS'AVE'
p2831
aS'VANCOUVER'
p2832
aS'WA'
p2833
aS'98665'
p2834
aa(lp2835
S'5114'
p2836
aS'NE'
p2837
aS'99TH'
p2838
aS'ST'
p2839
aS'VANCOUVER'
p2840
aS'WA'
p2841
aS'98665'
p2842
aa(lp2843
S'13704'
p2844
aS'NE'
p2845
aS'72ND'
p2846
aS'AVE'
p2847
aS'VANCOUVER'
p2848
aS'WA'
p2849
aS'98686'
p2850
aa(lp2851
S'9104'
p2852
aS'NW'
p2853
aS'11TH'
p2854
aS'AVE'
p2855
aS'VANCOUVER'
p2856
aS'WA'
p2857
aS'98665'
p2858
aa(lp2859
S'3701'
p2860
aS'NE'
p2861
aS'160TH'
p2862
aS'ST'
p2863
aS'RIDGEFIELD'
p2864
aS'WA'
p2865
aS'98642'
p2866
aa(lp2867
S'10206'
p2868
aS'NE'
p2869
aS'123RD'
p2870
aS'CT'
p2871
aS'VANCOUVER'
p2872
aS'WA'
p2873
aS'98682'
p2874
aa(lp2875
S'7506'
p2876
aS'NE'
p2877
aS'PAR'
p2878
aS'LN'
p2879
aS'VANCOUVER'
p2880
aS'WA'
p2881
aS'98662'
p2882
aa(lp2883
S'974'
p2884
aS'W'
p2885
aS'Y'
p2886
aS'ST'
p2887
aS'WASHOUGAL'
p2888
aS'WA'
p2889
aS'98671'
p2890
aa(lp2891
S'18401'
p2892
aS'SE'
p2893
aS'22ND'
p2894
aS'ST'
p2895
aS'VANCOUVER'
p2896
aS'WA'
p2897
aS'98683'
p2898
aa(lp2899
S'1940'
p2900
aS'NW'
p2901
aS'WILLOW'
p2902
aS'DR'
p2903
aS'CAMAS'
p2904
aS'WA'
p2905
aS'98607'
p2906
aa(lp2907
S'113'
p2908
aS'SW'
p2909
aS'3RD'
p2910
aS'ST'
p2911
aS'BATTLE GROUND'
p2912
aS'WA'
p2913
aS'98604'
p2914
aa(lp2915
S'4009'
p2916
aS'SE'
p2917
aS'157TH'
p2918
aS'AVE'
p2919
aS'VANCOUVER'
p2920
aS'WA'
p2921
aS'98683'
p2922
aa(lp2923
S'11114'
p2924
aS'NE'
p2925
aS'131ST'
p2926
aS'ST'
p2927
aS'VANCOUVER'
p2928
aS'WA'
p2929
aS'98662'
p2930
aa(lp2931
S'10105'
p2932
aS'NE'
p2933
aS'21ST'
p2934
aS'ST'
p2935
aS'VANCOUVER'
p2936
aS'WA'
p2937
aS'98664'
p2938
aa(lp2939
S'2006'
p2940
aS'NE'
p2941
aS'83RD'
p2942
aS'ST'
p2943
aS'VANCOUVER'
p2944
aS'WA'
p2945
aS'98665'
p2946
aa(lp2947
S'1803'
p2948
aS'SE'
p2949
aS'154TH'
p2950
aS'AVE'
p2951
aS'VANCOUVER'
p2952
aS'WA'
p2953
aS'98683'
p2954
aa(lp2955
S'2810'
p2956
ag1052
aS'EVERGREEN'
p2957
aS'BLVD'
p2958
aS'VANCOUVER'
p2959
aS'WA'
p2960
aS'98661'
p2961
aa(lp2962
S'497'
p2963
ag2885
aS'LOOKOUT RIDGE'
p2964
aS'DR'
p2965
aS'WASHOUGAL'
p2966
aS'WA'
p2967
aS'98671'
p2968
aa(lp2969
S'13816'
p2970
aS'NE'
p2971
aS'93RD'
p2972
aS'ST'
p2973
aS'VANCOUVER'
p2974
aS'WA'
p2975
aS'98682'
p2976
aa(lp2977
S'3813'
p2978
aS'SE'
p2979
aS'155TH'
p2980
aS'AVE'
p2981
aS'VANCOUVER'
p2982
aS'WA'
p2983
aS'98683'
p2984
aa(lp2985
S'15211'
p2986
aS'SE'
p2987
aS'4TH'
p2988
aS'ST'
p2989
aS'VANCOUVER'
p2990
aS'WA'
p2991
aS'98684'
p2992
aa(lp2993
S'6317'
p2994
aS'NE'
p2995
aS'38TH'
p2996
aS'ST'
p2997
aS'VANCOUVER'
p2998
aS'WA'
p2999
aS'98661'
p3000
aa(lp3001
S'617'
p3002
aS'NW'
p3003
aS'18TH'
p3004
aS'ST'
p3005
aS'BATTLE GROUND'
p3006
aS'WA'
p3007
aS'98604'
p3008
aa(lp3009
S'914'
p3010
aS'NE'
p3011
aS'129TH'
p3012
aS'ST'
p3013
aS'VANCOUVER'
p3014
aS'WA'
p3015
aS'98685'
p3016
aa(lp3017
S'3512'
p3018
aS'NE'
p3019
aS'169TH'
p3020
aS'AVE'
p3021
aS'VANCOUVER'
p3022
aS'WA'
p3023
aS'98682'
p3024
aa(lp3025
S'2533'
p3026
aS'NW'
p3027
aS'22ND'
p3028
aS'AVE'
p3029
aS'CAMAS'
p3030
aS'WA'
p3031
aS'98607'
p3032
aa(lp3033
S'1902'
p3034
aS'NW'
p3035
aS'105TH'
p3036
aS'ST'
p3037
aS'VANCOUVER'
p3038
aS'WA'
p3039
aS'98685'
p3040
aa(lp3041
S'1907'
p3042
aS'NW'
p3043
aS'6TH'
p3044
aS'AVE'
p3045
aS'BATTLE GROUND'
p3046
aS'WA'
p3047
aS'98604'
p3048
aa(lp3049
S'3405'
p3050
aS'NE'
p3051
aS'154TH'
p3052
aS'AVE'
p3053
aS'VANCOUVER'
p3054
aS'WA'
p3055
aS'98682'
p3056
aa(lp3057
S'1211'
p3058
aS'NE'
p3059
aS'160TH'
p3060
aS'AVE'
p3061
aS'VANCOUVER'
p3062
aS'WA'
p3063
aS'98684'
p3064
aa(lp3065
S'230'
p3066
ag250
aS'7TH'
p3067
aS'CT'
p3068
aS'WASHOUGAL'
p3069
aS'WA'
p3070
aS'98671'
p3071
aa(lp3072
S'7924'
p3073
aS'NE'
p3074
aS'91ST'
p3075
aS'AVE'
p3076
aS'VANCOUVER'
p3077
aS'WA'
p3078
aS'98662'
p3079
aa(lp3080
S'8602'
p3081
aS'NE'
p3082
aS'80TH'
p3083
aS'AVE'
p3084
aS'VANCOUVER'
p3085
aS'WA'
p3086
aS'98662'
p3087
aa(lp3088
S'2803'
p3089
aS'NE'
p3090
aS'65TH'
p3091
aS'AVE'
p3092
aS'VANCOUVER'
p3093
aS'WA'
p3094
aS'98661'
p3095
aa(lp3096
S'14000'
p3097
aS'NE'
p3098
aS'9TH'
p3099
aS'ST'
p3100
aS'VANCOUVER'
p3101
aS'WA'
p3102
aS'98684'
p3103
aa(lp3104
S'1713'
p3105
aS'SE'
p3106
aS'111TH'
p3107
aS'CT'
p3108
aS'VANCOUVER'
p3109
aS'WA'
p3110
aS'98664'
p3111
aa(lp3112
S'8602'
p3113
aS'NE'
p3114
aS'219TH'
p3115
aS'ST'
p3116
aS'BATTLE GROUND'
p3117
aS'WA'
p3118
aS'98604'
p3119
aa(lp3120
S'3700'
p3121
ag250
aS'X'
p3122
aS'ST'
p3123
aS'VANCOUVER'
p3124
aS'WA'
p3125
aS'98663'
p3126
aa(lp3127
S'14204'
p3128
aS'NE'
p3129
aS'10TH'
p3130
aS'AVE'
p3131
aS'VANCOUVER'
p3132
aS'WA'
p3133
aS'98685'
p3134
aa(lp3135
S'2307'
p3136
aS'NE'
p3137
aS'157TH'
p3138
aS'AVE'
p3139
aS'VANCOUVER'
p3140
aS'WA'
p3141
aS'98684'
p3142
aa(lp3143
S'5812'
p3144
aS'NE'
p3145
aS'70TH'
p3146
aS'ST'
p3147
aS'VANCOUVER'
p3148
aS'WA'
p3149
aS'98661'
p3150
aa(lp3151
S'3200'
p3152
ag250
aS'F'
p3153
aS'ST'
p3154
aS'VANCOUVER'
p3155
aS'WA'
p3156
aS'98663'
p3157
aa(lp3158
S'11305'
p3159
aS'NE'
p3160
aS'101ST'
p3161
aS'ST'
p3162
aS'VANCOUVER'
p3163
aS'WA'
p3164
aS'98662'
p3165
aa(lp3166
S'14501'
p3167
aS'NW'
p3168
aS'20TH'
p3169
aS'AVE'
p3170
aS'VANCOUVER'
p3171
aS'WA'
p3172
aS'98685'
p3173
aa(lp3174
S'9407'
p3175
aS'NE'
p3176
aS'32ND'
p3177
aS'AVE'
p3178
aS'VANCOUVER'
p3179
aS'WA'
p3180
aS'98665'
p3181
aa(lp3182
S'164'
p3183
ag123
aS'43RD'
p3184
aS'PL'
p3185
aS'RIDGEFIELD'
p3186
aS'WA'
p3187
aS'98642'
p3188
aa(lp3189
S'15217'
p3190
aS'NE'
p3191
aS'312TH'
p3192
aS'ST'
p3193
aS'BATTLE GROUND'
p3194
aS'WA'
p3195
aS'98604'
p3196
aa(lp3197
S'18801'
p3198
aS'SE'
p3199
aS'21ST'
p3200
aS'ST'
p3201
aS'VANCOUVER'
p3202
aS'WA'
p3203
aS'98683'
p3204
aa(lp3205
S'1910'
p3206
aS'SE'
p3207
aS'96TH'
p3208
aS'CT'
p3209
aS'VANCOUVER'
p3210
aS'WA'
p3211
aS'98664'
p3212
aa(lp3213
S'2209'
p3214
aS'SE'
p3215
aS'186TH'
p3216
aS'AVE'
p3217
aS'VANCOUVER'
p3218
aS'WA'
p3219
aS'98683'
p3220
aa(lp3221
S'14102'
p3222
aS'SE'
p3223
aS'MCGILLIVRAY'
p3224
aS'BLVD'
p3225
aS'VANCOUVER'
p3226
aS'WA'
p3227
aS'98683'
p3228
aa(lp3229
S'3913'
p3230
ag250
aS'CLARK'
p3231
aS'AVE'
p3232
aS'VANCOUVER'
p3233
aS'WA'
p3234
aS'98661'
p3235
aa(lp3236
S'7315'
p3237
aS'NE'
p3238
aS'43RD'
p3239
aS'AVE'
p3240
aS'VANCOUVER'
p3241
aS'WA'
p3242
aS'98661'
p3243
aa(lp3244
S'7516'
p3245
ag250
aS'CAROLINA'
p3246
aS'LN'
p3247
aS'VANCOUVER'
p3248
aS'WA'
p3249
aS'98664'
p3250
aa(lp3251
S'221'
p3252
ag2885
aS'32ND'
p3253
aS'ST'
p3254
aS'VANCOUVER'
p3255
aS'WA'
p3256
aS'98660'
p3257
aa(lp3258
S'7815'
p3259
aS'NW'
p3260
aS'BACON'
p3261
aS'RD'
p3262
aS'VANCOUVER'
p3263
aS'WA'
p3264
aS'98665'
p3265
aa(lp3266
S'2308'
p3267
aS'NE'
p3268
aS'219TH'
p3269
aS'ST'
p3270
aS'RIDGEFIELD'
p3271
aS'WA'
p3272
aS'98642'
p3273
aa(lp3274
S'505'
p3275
aS'SE'
p3276
aS'103RD'
p3277
aS'AVE'
p3278
aS'VANCOUVER'
p3279
aS'WA'
p3280
aS'98664'
p3281
aa(lp3282
S'1326'
p3283
ag910
aS'8TH'
p3284
aS'WAY'
p3285
aS'RIDGEFIELD'
p3286
aS'WA'
p3287
aS'98642'
p3288
aa(lp3289
S'18211'
p3290
aS'SE'
p3291
aS'22ND'
p3292
aS'ST'
p3293
aS'VANCOUVER'
p3294
aS'WA'
p3295
aS'98683'
p3296
aa(lp3297
S'11608'
p3298
aS'NE'
p3299
aS'103RD'
p3300
aS'ST'
p3301
aS'VANCOUVER'
p3302
aS'WA'
p3303
aS'98662'
p3304
aa(lp3305
S'504'
p3306
ag2885
aS'28TH'
p3307
aS'ST'
p3308
aS'VANCOUVER'
p3309
aS'WA'
p3310
aS'98660'
p3311
aa(lp3312
S'4309'
p3313
aS'NE'
p3314
aS'165TH'
p3315
aS'AVE'
p3316
aS'VANCOUVER'
p3317
aS'WA'
p3318
aS'98682'
p3319
aa(lp3320
S'13511'
p3321
aS'NE'
p3322
aS'88TH'
p3323
aS'CIR'
p3324
aS'VANCOUVER'
p3325
aS'WA'
p3326
aS'98682'
p3327
aa(lp3328
S'808'
p3329
aS'NW'
p3330
aS'41ST'
p3331
aS'ST'
p3332
aS'VANCOUVER'
p3333
aS'WA'
p3334
aS'98660'
p3335
aa(lp3336
S'17811'
p3337
aS'NE'
p3338
aS'GRINNELL'
p3339
aS'RD'
p3340
aS'WOODLAND'
p3341
aS'WA'
p3342
aS'98674'
p3343
aa(lp3344
S'4345'
p3345
aS'NW'
p3346
aS'16TH'
p3347
aS'AVE'
p3348
aS'CAMAS'
p3349
aS'WA'
p3350
aS'98607'
p3351
aa(lp3352
S'116'
p3353
ag910
aS'32ND'
p3354
aS'PL'
p3355
aS'RIDGEFIELD'
p3356
aS'WA'
p3357
aS'98642'
p3358
aa(lp3359
S'12603'
p3360
aS'NE'
p3361
aS'117TH'
p3362
aS'AVE'
p3363
aS'VANCOUVER'
p3364
aS'WA'
p3365
aS'98662'
p3366
aa(lp3367
S'4721'
p3368
aS'NE'
p3369
aS'26TH'
p3370
aS'AVE'
p3371
aS'VANCOUVER'
p3372
aS'WA'
p3373
aS'98663'
p3374
aa(lp3375
S'20819'
p3376
aS'NE'
p3377
aS'267TH'
p3378
aS'ST'
p3379
aS'BATTLE GROUND'
p3380
aS'WA'
p3381
aS'98604'
p3382
aa(lp3383
S'43111'
p3384
aS'NE'
p3385
aS'109TH'
p3386
aS'AVE'
p3387
aS'WOODLAND'
p3388
aS'WA'
p3389
aS'98674'
p3390
aa(lp3391
S'1635'
p3392
ag910
aS'17TH'
p3393
aS'CIR'
p3394
aS'RIDGEFIELD'
p3395
aS'WA'
p3396
aS'98642'
p3397
aa(lp3398
S'15517'
p3399
aS'NE'
p3400
aS'99TH'
p3401
aS'ST'
p3402
aS'VANCOUVER'
p3403
aS'WA'
p3404
aS'98682'
p3405
aa(lp3406
S'15211'
p3407
aS'NW'
p3408
aS'7TH'
p3409
aS'CT'
p3410
aS'VANCOUVER'
p3411
aS'WA'
p3412
aS'98685'
p3413
aa(lp3414
S'909'
p3415
ag2885
aS'39TH'
p3416
aS'ST'
p3417
aS'VANCOUVER'
p3418
aS'WA'
p3419
aS'98660'
p3420
aa(lp3421
S'16717'
p3422
aS'NE'
p3423
aS'182ND'
p3424
aS'AVE'
p3425
aS'BRUSH PRAIRIE'
p3426
aS'WA'
p3427
aS'98606'
p3428
aa(lp3429
S'14812'
p3430
aS'SE'
p3431
aS'5TH'
p3432
aS'ST'
p3433
aS'VANCOUVER'
p3434
aS'WA'
p3435
aS'98684'
p3436
aa(lp3437
S'3002'
p3438
aS'NE'
p3439
aS'102ND'
p3440
aS'CT'
p3441
aS'VANCOUVER'
p3442
aS'WA'
p3443
aS'98662'
p3444
aa(lp3445
S'10615'
p3446
aS'NE'
p3447
aS'25TH'
p3448
aS'PL'
p3449
aS'VANCOUVER'
p3450
aS'WA'
p3451
aS'98686'
p3452
aa(lp3453
S'1189'
p3454
ag1052
aS'ENNIS'
p3455
aS'CT'
p3456
aS'LA CENTER'
p3457
aS'WA'
p3458
aS'98629'
p3459
aa(lp3460
S'814'
p3461
aS'NW'
p3462
aS'GREELEY'
p3463
aS'ST'
p3464
aS'CAMAS'
p3465
aS'WA'
p3466
aS'98607'
p3467
aa(lp3468
S'13713'
p3469
aS'NE'
p3470
aS'242ND'
p3471
aS'ST'
p3472
aS'BATTLE GROUND'
p3473
aS'WA'
p3474
aS'98604'
p3475
aa(lp3476
S'3336'
p3477
aS'NW'
p3478
aS'OGDEN'
p3479
aS'ST'
p3480
aS'CAMAS'
p3481
aS'WA'
p3482
aS'98607'
p3483
aa(lp3484
S'1193'
p3485
ag1052
aS'ENNIS'
p3486
aS'CT'
p3487
aS'LA CENTER'
p3488
aS'WA'
p3489
aS'98629'
p3490
aa(lp3491
S'8411'
p3492
aS'NE'
p3493
aS'153RD'
p3494
aS'AVE'
p3495
aS'VANCOUVER'
p3496
aS'WA'
p3497
aS'98682'
p3498
aa(lp3499
S'1510'
p3500
aS'SW'
p3501
aS'20TH'
p3502
aS'AVE'
p3503
aS'BATTLE GROUND'
p3504
aS'WA'
p3505
aS'98604'
p3506
aa(lp3507
S'4520'
p3508
aS'NE'
p3509
aS'LANDERHOLM'
p3510
aS'RD'
p3511
aS'LA CENTER'
p3512
aS'WA'
p3513
aS'98629'
p3514
aa(lp3515
S'1601'
p3516
aS'SE'
p3517
aS'186TH'
p3518
aS'PL'
p3519
aS'VANCOUVER'
p3520
aS'WA'
p3521
aS'98683'
p3522
aa(lp3523
S'3500'
p3524
aS'NE'
p3525
aS'50TH'
p3526
aS'CT'
p3527
aS'VANCOUVER'
p3528
aS'WA'
p3529
aS'98661'
p3530
aa(lp3531
S'1212'
p3532
aS'NE'
p3533
aS'162ND'
p3534
aS'PL'
p3535
aS'VANCOUVER'
p3536
aS'WA'
p3537
aS'98684'
p3538
aa(lp3539
S'34701'
p3540
aS'NE'
p3541
aS'119TH'
p3542
aS'AVE'
p3543
aS'LA CENTER'
p3544
aS'WA'
p3545
aS'98629'
p3546
aa(lp3547
S'4107'
p3548
aS'NW'
p3549
aS'FIR TREE'
p3550
aS'DR'
p3551
aS'WOODLAND'
p3552
aS'WA'
p3553
aS'98674'
p3554
aa(lp3555
S'1812'
p3556
ag1052
aS'38TH'
p3557
aS'LOOP'
p3558
aS'VANCOUVER'
p3559
aS'WA'
p3560
aS'98663'
p3561
aa(lp3562
S'6132'
p3563
ag250
aS'BROADVIEW'
p3564
aS'LN'
p3565
aS'VANCOUVER'
p3566
aS'WA'
p3567
aS'98661'
p3568
aa(lp3569
S'2813'
p3570
ag250
aS'ADDY'
p3571
aS'ST'
p3572
aS'WASHOUGAL'
p3573
aS'WA'
p3574
aS'98671'
p3575
aa(lp3576
S'525'
p3577
ag1052
aS'DOGWOOD'
p3578
aS'AVE'
p3579
aS'LA CENTER'
p3580
aS'WA'
p3581
aS'98629'
p3582
aa(lp3583
S'715'
p3584
aS'NE'
p3585
aS'138TH'
p3586
aS'AVE'
p3587
aS'VANCOUVER'
p3588
aS'WA'
p3589
aS'98684'
p3590
aa(lp3591
S'2218'
p3592
aS'NE'
p3593
aS'232ND'
p3594
aS'AVE'
p3595
aS'CAMAS'
p3596
aS'WA'
p3597
aS'98607'
p3598
aa(lp3599
S'15310'
p3600
aS'NE'
p3601
aS'CAPLES'
p3602
aS'RD'
p3603
aS'BRUSH PRAIRIE'
p3604
aS'WA'
p3605
aS'98606'
p3606
aa(lp3607
S'19725'
p3608
aS'SE'
p3609
aS'36TH'
p3610
aS'WAY'
p3611
aS'CAMAS'
p3612
aS'WA'
p3613
aS'98607'
p3614
aa(lp3615
S'9400'
p3616
aS'NE'
p3617
aS'87TH'
p3618
aS'ST'
p3619
aS'VANCOUVER'
p3620
aS'WA'
p3621
aS'98662'
p3622
aa(lp3623
S'1509'
p3624
aS'NE'
p3625
aS'106TH'
p3626
aS'ST'
p3627
aS'VANCOUVER'
p3628
aS'WA'
p3629
aS'98686'
p3630
aa(lp3631
S'9302'
p3632
aS'NE'
p3633
aS'15TH'
p3634
aS'AVE'
p3635
aS'VANCOUVER'
p3636
aS'WA'
p3637
aS'98665'
p3638
aa(lp3639
S'109'
p3640
aS'NE'
p3641
aS'18TH'
p3642
aS'AVE'
p3643
aS'BATTLE GROUND'
p3644
aS'WA'
p3645
aS'98604'
p3646
aa(lp3647
S'9017'
p3648
ag250
aS'MT BAKER'
p3649
aS'AVE'
p3650
aS'VANCOUVER'
p3651
aS'WA'
p3652
aS'98664'
p3653
aa(lp3654
S'24706'
p3655
aS'NE'
p3656
aS'50TH'
p3657
aS'AVE'
p3658
aS'RIDGEFIELD'
p3659
aS'WA'
p3660
aS'98642'
p3661
aa(lp3662
S'2205'
p3663
aS'NW'
p3664
aS'OXFORD'
p3665
aS'ST'
p3666
aS'CAMAS'
p3667
aS'WA'
p3668
aS'98607'
p3669
aa(lp3670
S'693'
p3671
ag250
aS'32ND'
p3672
aS'ST'
p3673
aS'WASHOUGAL'
p3674
aS'WA'
p3675
aS'98671'
p3676
aa(lp3677
S'17617'
p3678
aS'SE'
p3679
aS'22ND'
p3680
aS'ST'
p3681
aS'VANCOUVER'
p3682
aS'WA'
p3683
aS'98683'
p3684
aa(lp3685
S'11406'
p3686
aS'NW'
p3687
aS'7TH'
p3688
aS'CT'
p3689
aS'VANCOUVER'
p3690
aS'WA'
p3691
aS'98685'
p3692
aa(lp3693
S'14302'
p3694
aS'SE'
p3695
aS'29TH'
p3696
aS'CIR'
p3697
aS'VANCOUVER'
p3698
aS'WA'
p3699
aS'98683'
p3700
aa(lp3701
S'523'
p3702
ag1052
aS'1ST'
p3703
aS'AVE'
p3704
aS'CAMAS'
p3705
aS'WA'
p3706
aS'98607'
p3707
aa(lp3708
S'14207'
p3709
aS'NE'
p3710
aS'94TH'
p3711
aS'ST'
p3712
aS'VANCOUVER'
p3713
aS'WA'
p3714
aS'98682'
p3715
aa(lp3716
S'301'
p3717
aS'NW'
p3718
aS'49TH'
p3719
aS'ST'
p3720
aS'VANCOUVER'
p3721
aS'WA'
p3722
aS'98663'
p3723
aa(lp3724
S'5907'
p3725
ag250
aS'OKLAHOMA'
p3726
aS'DR'
p3727
aS'VANCOUVER'
p3728
aS'WA'
p3729
aS'98661'
p3730
aa(lp3731
S'3017'
p3732
aS'NE'
p3733
aS'160TH'
p3734
aS'CT'
p3735
aS'VANCOUVER'
p3736
aS'WA'
p3737
aS'98682'
p3738
aa(lp3739
S'9915'
p3740
aS'NE'
p3741
aS'30TH'
p3742
aS'CIR'
p3743
aS'VANCOUVER'
p3744
aS'WA'
p3745
aS'98662'
p3746
aa(lp3747
S'39203'
p3748
aS'NE'
p3749
aS'4TH'
p3750
aS'AVE'
p3751
aS'WOODLAND'
p3752
aS'WA'
p3753
aS'98674'
p3754
aa(lp3755
S'7602'
p3756
aS'NE'
p3757
aS'59TH'
p3758
aS'CIR'
p3759
aS'VANCOUVER'
p3760
aS'WA'
p3761
aS'98662'
p3762
aa(lp3763
S'3712'
p3764
ag250
aS'V'
p3765
aS'ST'
p3766
aS'VANCOUVER'
p3767
aS'WA'
p3768
aS'98663'
p3769
aa(lp3770
S'3453'
p3771
aS'NW'
p3772
aS'DAHLIA'
p3773
aS'DR'
p3774
aS'CAMAS'
p3775
aS'WA'
p3776
aS'98607'
p3777
aa(lp3778
S'200'
p3779
ag2885
aS'32ND'
p3780
aS'ST'
p3781
aS'VANCOUVER'
p3782
aS'WA'
p3783
aS'98660'
p3784
aa(lp3785
S'32508'
p3786
aS'NE'
p3787
aS'DIAL'
p3788
aS'RD'
p3789
aS'CAMAS'
p3790
aS'WA'
p3791
aS'98607'
p3792
aa(lp3793
S'36604'
p3794
aS'NE'
p3795
aS'139TH'
p3796
aS'AVE'
p3797
aS'LA CENTER'
p3798
aS'WA'
p3799
aS'98629'
p3800
aa(lp3801
S'17600'
p3802
aS'NE'
p3803
aS'219TH'
p3804
aS'ST'
p3805
aS'BATTLE GROUND'
p3806
aS'WA'
p3807
aS'98604'
p3808
aa(lp3809
S'17508'
p3810
aS'NE'
p3811
aS'29TH'
p3812
aS'ST'
p3813
aS'VANCOUVER'
p3814
aS'WA'
p3815
aS'98682'
p3816
aa(lp3817
S'8004'
p3818
aS'NE'
p3819
aS'100TH'
p3820
aS'CIR'
p3821
aS'VANCOUVER'
p3822
aS'WA'
p3823
aS'98662'
p3824
aa(lp3825
S'12910'
p3826
aS'NE'
p3827
aS'20TH'
p3828
aS'ST'
p3829
aS'VANCOUVER'
p3830
aS'WA'
p3831
aS'98684'
p3832
aa(lp3833
S'2201'
p3834
aS'NW'
p3835
aS'140TH'
p3836
aS'ST'
p3837
aS'VANCOUVER'
p3838
aS'WA'
p3839
aS'98685'
p3840
aa(lp3841
S'10001'
p3842
aS'NE'
p3843
aS'115TH'
p3844
aS'AVE'
p3845
aS'VANCOUVER'
p3846
aS'WA'
p3847
aS'98662'
p3848
aa(lp3849
S'8621'
p3850
aS'NE'
p3851
aS'SAINT JOHNS'
p3852
aS'RD'
p3853
aS'VANCOUVER'
p3854
aS'WA'
p3855
aS'98665'
p3856
aa(lp3857
S'22011'
p3858
aS'NE'
p3859
aS'399TH'
p3860
aS'ST'
p3861
aS'AMBOY'
p3862
aS'WA'
p3863
aS'98601'
p3864
aa(lp3865
S'9304'
p3866
aS'NE'
p3867
aS'279TH'
p3868
aS'ST'
p3869
aS'BATTLE GROUND'
p3870
aS'WA'
p3871
aS'98604'
p3872
aa(lp3873
S'31412'
p3874
aS'NW'
p3875
aS'31ST'
p3876
aS'AVE'
p3877
aS'RIDGEFIELD'
p3878
aS'WA'
p3879
aS'98642'
p3880
aa(lp3881
S'9214'
p3882
aS'NE'
p3883
aS'ALPINE'
p3884
aS'ST'
p3885
aS'VANCOUVER'
p3886
aS'WA'
p3887
aS'98664'
p3888
aa(lp3889
S'3225'
p3890
ag250
aS'OLIVE'
p3891
aS'ST'
p3892
aS'VANCOUVER'
p3893
aS'WA'
p3894
aS'98660'
p3895
aa(lp3896
S'8300'
p3897
aS'NE'
p3898
aS'163RD'
p3899
aS'AVE'
p3900
aS'VANCOUVER'
p3901
aS'WA'
p3902
aS'98682'
p3903
aa(lp3904
S'3144'
p3905
aS'NE'
p3906
aS'115TH'
p3907
aS'AVE'
p3908
aS'VANCOUVER'
p3909
aS'WA'
p3910
aS'98682'
p3911
aa(lp3912
S'24519'
p3913
aS'NE'
p3914
aS'STEGERT'
p3915
aS'DR'
p3916
aS'BATTLE GROUND'
p3917
aS'WA'
p3918
aS'98604'
p3919
aa(lp3920
S'41212'
p3921
aS'NE'
p3922
aS'256TH'
p3923
aS'AVE'
p3924
aS'AMBOY'
p3925
aS'WA'
p3926
aS'98601'
p3927
aa(lp3928
S'9003'
p3929
aS'SE'
p3930
aS'PORTER'
p3931
aS'RD'
p3932
aS'VANCOUVER'
p3933
aS'WA'
p3934
aS'98664'
p3935
aa(lp3936
S'609'
p3937
aS'NE'
p3938
aS'138TH'
p3939
aS'AVE'
p3940
aS'VANCOUVER'
p3941
aS'WA'
p3942
aS'98684'
p3943
aa(lp3944
S'3114'
p3945
ag250
aS'WEIGEL'
p3946
aS'AVE'
p3947
aS'VANCOUVER'
p3948
aS'WA'
p3949
aS'98660'
p3950
aa(lp3951
S'1200'
p3952
aS'NE'
p3953
aS'99TH'
p3954
aS'ST'
p3955
aS'VANCOUVER'
p3956
aS'WA'
p3957
aS'98665'
p3958
aa(lp3959
S'14019'
p3960
aS'NE'
p3961
aS'20TH'
p3962
aS'AVE'
p3963
aS'VANCOUVER'
p3964
aS'WA'
p3965
aS'98686'
p3966
aa(lp3967
S'309'
p3968
ag2885
aS'39TH'
p3969
aS'ST'
p3970
aS'VANCOUVER'
p3971
aS'WA'
p3972
aS'98660'
p3973
aa(lp3974
S'411'
p3975
ag910
aS'ALDER'
p3976
aS'AVE'
p3977
aS'YACOLT'
p3978
aS'WA'
p3979
aS'98675'
p3980
aa(lp3981
S'7414'
p3982
aS'NW'
p3983
aS'11TH'
p3984
aS'AVE'
p3985
aS'VANCOUVER'
p3986
aS'WA'
p3987
aS'98665'
p3988
aa(lp3989
S'4206'
p3990
aS'NE'
p3991
aS'239TH'
p3992
aS'ST'
p3993
aS'RIDGEFIELD'
p3994
aS'WA'
p3995
aS'98642'
p3996
aa(lp3997
S'3616'
p3998
aS'NE'
p3999
aS'SPRUCE'
p4000
aS'DR'
p4001
aS'CAMAS'
p4002
aS'WA'
p4003
aS'98607'
p4004
aa(lp4005
S'234'
p4006
aS'NW'
p4007
aS'18TH'
p4008
aS'AVE'
p4009
aS'CAMAS'
p4010
aS'WA'
p4011
aS'98607'
p4012
aa(lp4013
S'300'
p4014
aS'SW'
p4015
aS'7TH'
p4016
aS'AVE'
p4017
aS'BATTLE GROUND'
p4018
aS'WA'
p4019
aS'98604'
p4020
aa(lp4021
S'5313'
p4022
aS'NE'
p4023
aS'54TH'
p4024
aS'AVE'
p4025
aS'VANCOUVER'
p4026
aS'WA'
p4027
aS'98661'
p4028
aa(lp4029
S'4306'
p4030
aS'NE'
p4031
aS'57TH'
p4032
aS'PL'
p4033
aS'VANCOUVER'
p4034
aS'WA'
p4035
aS'98661'
p4036
aa(lp4037
S'8207'
p4038
aS'NE'
p4039
aS'58TH'
p4040
aS'ST'
p4041
aS'VANCOUVER'
p4042
aS'WA'
p4043
aS'98662'
p4044
aa(lp4045
S'9206'
p4046
aS'NE'
p4047
aS'ETNA'
p4048
aS'RD'
p4049
aS'WOODLAND'
p4050
aS'WA'
p4051
aS'98674'
p4052
aa(lp4053
S'13112'
p4054
aS'NE'
p4055
aS'28TH'
p4056
aS'ST'
p4057
aS'VANCOUVER'
p4058
aS'WA'
p4059
aS'98682'
p4060
aa(lp4061
S'17623'
p4062
aS'NE'
p4063
aS'36TH'
p4064
aS'WAY'
p4065
aS'VANCOUVER'
p4066
aS'WA'
p4067
aS'98682'
p4068
aa(lp4069
S'2700'
p4070
aS'NE'
p4071
aS'121ST'
p4072
aS'ST'
p4073
aS'VANCOUVER'
p4074
aS'WA'
p4075
aS'98686'
p4076
aa(lp4077
S'1909'
p4078
aS'NE'
p4079
aS'94TH'
p4080
aS'CT'
p4081
aS'VANCOUVER'
p4082
aS'WA'
p4083
aS'98664'
p4084
aa(lp4085
S'15315'
p4086
aS'NE'
p4087
aS'16TH'
p4088
aS'ST'
p4089
aS'VANCOUVER'
p4090
aS'WA'
p4091
aS'98684'
p4092
aa(lp4093
S'10310'
p4094
aS'SE'
p4095
aS'14TH'
p4096
aS'CIR'
p4097
aS'VANCOUVER'
p4098
aS'WA'
p4099
aS'98664'
p4100
aa(lp4101
S'3515'
p4102
aS'NE'
p4103
aS'45TH'
p4104
aS'ST'
p4105
aS'VANCOUVER'
p4106
aS'WA'
p4107
aS'98661'
p4108
aa(lp4109
S'705'
p4110
aS'NW'
p4111
aS'87TH'
p4112
aS'ST'
p4113
aS'VANCOUVER'
p4114
aS'WA'
p4115
aS'98665'
p4116
aa(lp4117
S'2503'
p4118
aS'SE'
p4119
aS'HIDDEN'
p4120
aS'WAY'
p4121
aS'VANCOUVER'
p4122
aS'WA'
p4123
aS'98661'
p4124
aa(lp4125
S'14141'
p4126
aS'NE'
p4127
aS'37TH'
p4128
aS'CIR'
p4129
aS'VANCOUVER'
p4130
aS'WA'
p4131
aS'98682'
p4132
aa(lp4133
S'13407'
p4134
aS'NE'
p4135
aS'REGENTS'
p4136
aS'DR'
p4137
aS'VANCOUVER'
p4138
aS'WA'
p4139
aS'98684'
p4140
aa(lp4141
S'3514'
p4142
ag250
aS'R'
p4143
aS'ST'
p4144
aS'VANCOUVER'
p4145
aS'WA'
p4146
aS'98663'
p4147
aa(lp4148
S'10709'
p4149
aS'NW'
p4150
aS'21ST'
p4151
aS'AVE'
p4152
aS'VANCOUVER'
p4153
aS'WA'
p4154
aS'98685'
p4155
aa(lp4156
S'10515'
p4157
aS'NW'
p4158
aS'13TH'
p4159
aS'PL'
p4160
aS'VANCOUVER'
p4161
aS'WA'
p4162
aS'98685'
p4163
aa(lp4164
S'36013'
p4165
aS'NW'
p4166
aS'SEIBLER'
p4167
aS'DR'
p4168
aS'LA CENTER'
p4169
aS'WA'
p4170
aS'98629'
p4171
aa(lp4172
S'19310'
p4173
aS'NE'
p4174
aS'139TH'
p4175
aS'ST'
p4176
aS'BRUSH PRAIRIE'
p4177
aS'WA'
p4178
aS'98606'
p4179
aa(lp4180
S'16405'
p4181
aS'NE'
p4182
aS'31ST'
p4183
aS'ST'
p4184
aS'VANCOUVER'
p4185
aS'WA'
p4186
aS'98682'
p4187
aa(lp4188
S'3210'
p4189
ag250
aS'L'
p4190
aS'ST'
p4191
aS'VANCOUVER'
p4192
aS'WA'
p4193
aS'98663'
p4194
aa(lp4195
S'4809'
p4196
aS'NE'
p4197
aS'109TH'
p4198
aS'ST'
p4199
aS'VANCOUVER'
p4200
aS'WA'
p4201
aS'98686'
p4202
aa(lp4203
S'30108'
p4204
aS'NE'
p4205
aS'60TH'
p4206
aS'ST'
p4207
aS'CAMAS'
p4208
aS'WA'
p4209
aS'98607'
p4210
aa(lp4211
S'6910'
p4212
aS'NE'
p4213
aS'339TH'
p4214
aS'ST'
p4215
aS'LA CENTER'
p4216
aS'WA'
p4217
aS'98629'
p4218
aa(lp4219
S'7417'
p4220
aS'NE'
p4221
aS'110TH'
p4222
aS'AVE'
p4223
aS'VANCOUVER'
p4224
aS'WA'
p4225
aS'98662'
p4226
aa(lp4227
S'10325'
p4228
aS'NE'
p4229
aS'116TH'
p4230
aS'PL'
p4231
aS'VANCOUVER'
p4232
aS'WA'
p4233
aS'98662'
p4234
aa(lp4235
S'604'
p4236
aS'SE'
p4237
aS'103RD'
p4238
aS'AVE'
p4239
aS'VANCOUVER'
p4240
aS'WA'
p4241
aS'98664'
p4242
aa(lp4243
S'13307'
p4244
aS'NW'
p4245
aS'39TH'
p4246
aS'AVE'
p4247
aS'VANCOUVER'
p4248
aS'WA'
p4249
aS'98685'
p4250
aa(lp4251
S'6315'
p4252
aS'NE'
p4253
aS'59TH'
p4254
aS'CT'
p4255
aS'VANCOUVER'
p4256
aS'WA'
p4257
aS'98661'
p4258
aa(lp4259
S'19100'
p4260
aS'NE'
p4261
aS'102ND'
p4262
aS'AVE'
p4263
aS'BATTLE GROUND'
p4264
aS'WA'
p4265
aS'98604'
p4266
aa(lp4267
S'2205'
p4268
aS'NW'
p4269
aS'143RD'
p4270
aS'CIR'
p4271
aS'VANCOUVER'
p4272
aS'WA'
p4273
aS'98685'
p4274
aa(lp4275
S'2419'
p4276
aS'NE'
p4277
aS'113TH'
p4278
aS'CT'
p4279
aS'VANCOUVER'
p4280
aS'WA'
p4281
aS'98684'
p4282
aa(lp4283
S'2837'
p4284
aS'NW'
p4285
aS'LACAMAS'
p4286
aS'DR'
p4287
aS'CAMAS'
p4288
aS'WA'
p4289
aS'98607'
p4290
aa(lp4291
S'1318'
p4292
aS'NW'
p4293
aS'14TH'
p4294
aS'ST'
p4295
aS'BATTLE GROUND'
p4296
aS'WA'
p4297
aS'98604'
p4298
aa(lp4299
S'10810'
p4300
aS'NE'
p4301
aS'48TH'
p4302
aS'CIR'
p4303
aS'VANCOUVER'
p4304
aS'WA'
p4305
aS'98682'
p4306
aa(lp4307
S'3003'
p4308
aS'NW'
p4309
aS'JULIA'
p4310
aS'ST'
p4311
aS'CAMAS'
p4312
aS'WA'
p4313
aS'98607'
p4314
aa(lp4315
S'6712'
p4316
aS'NE'
p4317
aS'57TH'
p4318
aS'AVE'
p4319
aS'VANCOUVER'
p4320
aS'WA'
p4321
aS'98661'
p4322
aa(lp4323
S'11810'
p4324
aS'NE'
p4325
aS'4TH'
p4326
aS'ST'
p4327
aS'VANCOUVER'
p4328
aS'WA'
p4329
aS'98684'
p4330
aa(lp4331
S'6811'
p4332
aS'NE'
p4333
aS'124TH'
p4334
aS'AVE'
p4335
aS'VANCOUVER'
p4336
aS'WA'
p4337
aS'98682'
p4338
aa(lp4339
S'906'
p4340
aS'SE'
p4341
aS'352ND'
p4342
aS'AVE'
p4343
aS'WASHOUGAL'
p4344
aS'WA'
p4345
aS'98671'
p4346
aa(lp4347
S'15004'
p4348
aS'NE'
p4349
aS'5TH'
p4350
aS'CT'
p4351
aS'VANCOUVER'
p4352
aS'WA'
p4353
aS'98685'
p4354
aa(lp4355
S'3007'
p4356
aS'SE'
p4357
aS'313TH'
p4358
aS'AVE'
p4359
aS'WASHOUGAL'
p4360
aS'WA'
p4361
aS'98671'
p4362
aa(lp4363
S'5516'
p4364
aS'NE'
p4365
aS'114TH'
p4366
aS'ST'
p4367
aS'VANCOUVER'
p4368
aS'WA'
p4369
aS'98686'
p4370
aa(lp4371
S'834'
p4372
aS'NW'
p4373
aS'19TH'
p4374
aS'AVE'
p4375
aS'CAMAS'
p4376
aS'WA'
p4377
aS'98607'
p4378
aa(lp4379
S'2719'
p4380
aS'NW'
p4381
aS'109TH'
p4382
aS'ST'
p4383
aS'VANCOUVER'
p4384
aS'WA'
p4385
aS'98685'
p4386
aa(lp4387
S'24317'
p4388
aS'NE'
p4389
aS'BERRY'
p4390
aS'RD'
p4391
aS'BATTLE GROUND'
p4392
aS'WA'
p4393
aS'98604'
p4394
aa(lp4395
S'7001'
p4396
aS'NE'
p4397
aS'329TH'
p4398
aS'ST'
p4399
aS'LA CENTER'
p4400
aS'WA'
p4401
aS'98629'
p4402
aa(lp4403
S'2208'
p4404
aS'NE'
p4405
aS'91ST'
p4406
aS'ST'
p4407
aS'VANCOUVER'
p4408
aS'WA'
p4409
aS'98665'
p4410
aa(lp4411
S'907'
p4412
aS'NW'
p4413
aS'21ST'
p4414
aS'AVE'
p4415
aS'BATTLE GROUND'
p4416
aS'WA'
p4417
aS'98604'
p4418
aa(lp4419
S'20737'
p4420
ag910
aS'BEAVERCREEK'
p4421
aS'RD'
p4422
aS'OREGON CITY'
p4423
aS'OR'
p4424
aS'97045'
p4425
aa(lp4426
S'1555'
p4427
ag910
aS'FIR'
p4428
aS'ST'
p4429
aS'CANBY'
p4430
aS'OR'
p4431
aS'97013'
p4432
aa(lp4433
S'20451'
p4434
ag250
aS'NOBLE'
p4435
aS'LN'
p4436
aS'WEST LINN'
p4437
aS'OR'
p4438
aS'97068'
p4439
aa(lp4440
S'28211'
p4441
aS'SE'
p4442
aS'DALE'
p4443
aS'LN'
p4444
aS'EAGLE CREEK'
p4445
aS'OR'
p4446
aS'97022'
p4447
aa(lp4448
S'19360'
p4449
ag250
aS'MCLOUGHLIN'
p4450
aS'BLVD'
p4451
aS'GLADSTONE'
p4452
aS'OR'
p4453
aS'97027'
p4454
aa(lp4455
S'120'
p4456
ag250
aS'5TH'
p4457
aS'ST'
p4458
aS'LAKE OSWEGO'
p4459
aS'OR'
p4460
aS'97034'
p4461
aa(lp4462
S'4155'
p4463
aS'SE'
p4464
aS'DRAKE'
p4465
aS'ST'
p4466
aS'MILWAUKIE'
p4467
aS'OR'
p4468
aS'97222'
p4469
aa(lp4470
S'1300'
p4471
ag250
aS'HOMESTEAD'
p4472
aS'PL'
p4473
aS'MOLALLA'
p4474
aS'OR'
p4475
aS'97038'
p4476
aa(lp4477
S'16727'
p4478
aS'SE'
p4479
aS'KNOLL RIDGE'
p4480
aS'TER'
p4481
aS'MILWAUKIE'
p4482
aS'OR'
p4483
aS'97267'
p4484
aa(lp4485
S'3904'
p4486
aS'SE'
p4487
aS'SPAULDING'
p4488
aS'AVE'
p4489
aS'MILWAUKIE'
p4490
aS'OR'
p4491
aS'97267'
p4492
aa(lp4493
S'4'
p4494
ag250
aS'TOUCHSTONE UNIT'
p4495
aS'107'
p4496
aS'LAKE OSWEGO'
p4497
aS'OR'
p4498
aS'97035'
p4499
aa(lp4500
S'8868'
p4501
aS'SE'
p4502
aS'BRISTOL PARK'
p4503
aS'DR'
p4504
aS'HAPPY VALLEY'
p4505
aS'OR'
p4506
aS'97086'
p4507
aa(lp4508
S'345'
p4509
ag123
aS'GRANT'
p4510
aS'ST'
p4511
aS'CANBY'
p4512
aS'OR'
p4513
aS'97013'
p4514
aa(lp4515
S'16270'
p4516
aS'SE'
p4517
aS'JASPER'
p4518
aS'DR'
p4519
aS'DAMASCUS'
p4520
aS'OR'
p4521
aS'97089'
p4522
aa(lp4523
S'15710'
p4524
aS'SE'
p4525
aS'BUSER'
p4526
aS'AVE'
p4527
aS'CLACKAMAS'
p4528
aS'OR'
p4529
aS'97015'
p4530
aa(lp4531
S'5090'
p4532
aS'SW'
p4533
aS'FIRWOOD'
p4534
aS'RD'
p4535
aS'LAKE OSWEGO'
p4536
aS'OR'
p4537
aS'97035'
p4538
aa(lp4539
S'1573'
p4540
ag250
aS'VIEW LAKE'
p4541
aS'CT'
p4542
aS'LAKE OSWEGO'
p4543
aS'OR'
p4544
aS'97034'
p4545
aa(lp4546
S'22615'
p4547
aS'SE'
p4548
aS'GEORGIA LEE'
p4549
aS'LN'
p4550
aS'DAMASCUS'
p4551
aS'OR'
p4552
aS'97089'
p4553
aa(lp4554
S'25276'
p4555
ag910
aS'BEAVERCREEK'
p4556
aS'RD'
p4557
aS'BEAVERCREEK'
p4558
aS'OR'
p4559
aS'97004'
p4560
aa(lp4561
S'11037'
p4562
aS'SE'
p4563
aS'WICHITA'
p4564
aS'CT'
p4565
aS'MILWAUKIE'
p4566
aS'OR'
p4567
aS'97222'
p4568
aa(lp4569
S'12200'
p4570
aS'SE'
p4571
aS'VALLEY VIEW'
p4572
aS'TER'
p4573
aS'HAPPY VALLEY'
p4574
aS'OR'
p4575
aS'97086'
p4576
aa(lp4577
S'2704'
p4578
aS'SE'
p4579
aS'PINE'
p4580
aS'LN'
p4581
aS'MILWAUKIE'
p4582
aS'OR'
p4583
aS'97267'
p4584
aa(lp4585
S'3131'
p4586
aS'SE'
p4587
aS'BIRCH'
p4588
aS'AVE'
p4589
aS'MILWAUKIE'
p4590
aS'OR'
p4591
aS'97267'
p4592
aa(lp4593
S'2529'
p4594
aS'SE'
p4595
aS'LINDEN'
p4596
aS'WAY'
p4597
aS'MILWAUKIE'
p4598
aS'OR'
p4599
aS'97267'
p4600
aa(lp4601
S'390'
p4602
ag910
aS'MANZANITA'
p4603
aS'CT'
p4604
aS'CANBY'
p4605
aS'OR'
p4606
aS'97013'
p4607
aa(lp4608
S'11449'
p4609
aS'SW'
p4610
aS'FRENCH GLEN'
p4611
aS'CT'
p4612
aS'WILSONVILLE'
p4613
aS'OR'
p4614
aS'97070'
p4615
aa(lp4616
S'14855'
p4617
ag250
aS'TWIN FIR'
p4618
aS'RD'
p4619
aS'LAKE OSWEGO'
p4620
aS'OR'
p4621
aS'97035'
p4622
aa(lp4623
S'1010'
p4624
ag250
aS'CHARMAN'
p4625
aS'ST'
p4626
aS'OREGON CITY'
p4627
aS'OR'
p4628
aS'97045'
p4629
aa(lp4630
S'7856'
p4631
aS'SE'
p4632
aS'MCBRIDE'
p4633
aS'ST'
p4634
aS'MILWAUKIE'
p4635
aS'OR'
p4636
aS'97222'
p4637
aa(lp4638
S'10874'
p4639
aS'SE'
p4640
aS'LENORE'
p4641
aS'ST'
p4642
aS'HAPPY VALLEY'
p4643
aS'OR'
p4644
aS'97086'
p4645
aa(lp4646
S'1750'
p4647
aS'SW'
p4648
aS'MIDVALE'
p4649
aS'RD'
p4650
aS'PORTLAND'
p4651
aS'OR'
p4652
aS'97219'
p4653
aa(lp4654
S'14740'
p4655
aS'SE'
p4656
aS'LUELLA'
p4657
aS'LN'
p4658
aS'MILWAUKIE'
p4659
aS'OR'
p4660
aS'97267'
p4661
aa(lp4662
S'8831'
p4663
aS'SE'
p4664
aS'137TH'
p4665
aS'AVE'
p4666
aS'HAPPY VALLEY'
p4667
aS'OR'
p4668
aS'97086'
p4669
aa(lp4670
S'7475'
p4671
aS'SW'
p4672
aS'LAKESIDE'
p4673
aS'LOOP'
p4674
aS'WILSONVILLE'
p4675
aS'OR'
p4676
aS'97070'
p4677
aa(lp4678
S'25799'
p4679
ag910
aS'MORGAN'
p4680
aS'RD'
p4681
aS'ESTACADA'
p4682
aS'OR'
p4683
aS'97023'
p4684
aa(lp4685
S'15007'
p4686
ag250
aS'EMERSON'
p4687
aS'CT'
p4688
aS'OREGON CITY'
p4689
aS'OR'
p4690
aS'97045'
p4691
aa(lp4692
S'6645'
p4693
aS'SE'
p4694
aS'ALBERTA'
p4695
aS'AVE'
p4696
aS'PORTLAND'
p4697
aS'OR'
p4698
aS'97206'
p4699
aa(lp4700
S'1907'
p4701
ag250
aS'SUNRAY'
p4702
aS'CT'
p4703
aS'WEST LINN'
p4704
aS'OR'
p4705
aS'97068'
p4706
aa(lp4707
S'370'
p4708
ag123
aS'DOUGLAS'
p4709
aS'ST'
p4710
aS'CANBY'
p4711
aS'OR'
p4712
aS'97013'
p4713
aa(lp4714
S'12762'
p4715
aS'SE'
p4716
aS'OTT'
p4717
aS'ST'
p4718
aS'CLACKAMAS'
p4719
aS'OR'
p4720
aS'97015'
p4721
aa(lp4722
S'876'
p4723
ag250
aS'JULIE'
p4724
aS'LN'
p4725
aS'MOLALLA'
p4726
aS'OR'
p4727
aS'97038'
p4728
aa(lp4729
S'4739'
p4730
aS'SE'
p4731
aS'KING'
p4732
aS'RD'
p4733
aS'MILWAUKIE'
p4734
aS'OR'
p4735
aS'97222'
p4736
aa(lp4737
S'25189'
p4738
ag910
aS'ESTER'
p4739
aS'CT'
p4740
aS'ESTACADA'
p4741
aS'OR'
p4742
aS'97023'
p4743
aa(lp4744
S'4450'
p4745
ag250
aS'ELMRAN'
p4746
aS'DR'
p4747
aS'WEST LINN'
p4748
aS'OR'
p4749
aS'97068'
p4750
aa(lp4751
S'66900'
p4752
ag1052
aS'PICCADILLY'
p4753
aS'LN'
p4754
aS'BRIGHTWOOD'
p4755
aS'OR'
p4756
aS'97011'
p4757
aa(lp4758
S'17918'
p4759
ag250
aS'KELOK'
p4760
aS'RD'
p4761
aS'LAKE OSWEGO'
p4762
aS'OR'
p4763
aS'97034'
p4764
aa(lp4765
S'28795'
p4766
ag910
aS'BEAVERCREEK'
p4767
aS'RD'
p4768
aS'MULINO'
p4769
aS'OR'
p4770
aS'97042'
p4771
aa(lp4772
S'4249'
p4773
ag250
aS'SUSSEX'
p4774
aS'ST'
p4775
aS'WEST LINN'
p4776
aS'OR'
p4777
aS'97068'
p4778
aa(lp4779
S'38422'
p4780
ag250
aS'HOOD'
p4781
aS'ST'
p4782
aS'SANDY'
p4783
aS'OR'
p4784
aS'97055'
p4785
aa(lp4786
S'19785'
p4787
ag250
aS'WILDWOOD'
p4788
aS'DR'
p4789
aS'WEST LINN'
p4790
aS'OR'
p4791
aS'97068'
p4792
aa(lp4793
S'11825'
p4794
aS'SE'
p4795
aS'129TH'
p4796
aS'AVE'
p4797
aS'HAPPY VALLEY'
p4798
aS'OR'
p4799
aS'97086'
p4800
aa(lp4801
S'4511'
p4802
aS'SE'
p4803
aS'HARRISON'
p4804
aS'ST'
p4805
aS'MILWAUKIE'
p4806
aS'OR'
p4807
aS'97222'
p4808
aa(lp4809
S'28380'
p4810
aS'SE'
p4811
aS'STONE'
p4812
aS'RD'
p4813
aS'BORING'
p4814
aS'OR'
p4815
aS'97009'
p4816
aa(lp4817
S'14274'
p4818
aS'SE'
p4819
aS'ROLLING MEADOWS'
p4820
aS'DR'
p4821
aS'HAPPY VALLEY'
p4822
aS'OR'
p4823
aS'97086'
p4824
aa(lp4825
S'245'
p4826
ag1052
aS'HEREFORD'
p4827
aS'ST'
p4828
aS'GLADSTONE'
p4829
aS'OR'
p4830
aS'97027'
p4831
aa(lp4832
S'2405'
p4833
ag250
aS'HASKINS'
p4834
aS'RD'
p4835
aS'WEST LINN'
p4836
aS'OR'
p4837
aS'97068'
p4838
aa(lp4839
S'1031'
p4840
ag250
aS'SUNNINGDALE'
p4841
aS'RD'
p4842
aS'LAKE OSWEGO'
p4843
aS'OR'
p4844
aS'97034'
p4845
aa(lp4846
S'193'
p4847
aS'NE'
p4848
aS'3RD'
p4849
aS'AVE'
p4850
aS'CANBY'
p4851
aS'OR'
p4852
aS'97013'
p4853
aa(lp4854
S'4212'
p4855
ag250
aS'ORCHARD'
p4856
aS'WAY'
p4857
aS'LAKE OSWEGO'
p4858
aS'OR'
p4859
aS'97035'
p4860
aa(lp4861
S'24445'
p4862
aS'SW'
p4863
aS'NEWLAND'
p4864
aS'RD'
p4865
aS'WILSONVILLE'
p4866
aS'OR'
p4867
aS'97070'
p4868
aa(lp4869
S'7973'
p4870
ag910
aS'MARK'
p4871
aS'RD'
p4872
aS'CANBY'
p4873
aS'OR'
p4874
aS'97013'
p4875
aa(lp4876
S'730'
p4877
ag910
aS'ELM'
p4878
aS'CT'
p4879
aS'CANBY'
p4880
aS'OR'
p4881
aS'97013'
p4882
aa(lp4883
S'16045'
p4884
ag250
aS'HUNTER'
p4885
aS'AVE'
p4886
aS'OREGON CITY'
p4887
aS'OR'
p4888
aS'97045'
p4889
aa(lp4890
S'5187'
p4891
aS'SE'
p4892
aS'RINEARSON'
p4893
aS'RD'
p4894
aS'MILWAUKIE'
p4895
aS'OR'
p4896
aS'97267'
p4897
aa(lp4898
S'18553'
p4899
ag910
aS'FERGUSON'
p4900
aS'RD'
p4901
aS'OREGON CITY'
p4902
aS'OR'
p4903
aS'97045'
p4904
aa(lp4905
S'6096'
p4906
aS'SW'
p4907
aS'HARRINGTON'
p4908
aS'AVE'
p4909
aS'LAKE OSWEGO'
p4910
aS'OR'
p4911
aS'97035'
p4912
aa(lp4913
S'21100'
p4914
ag1052
aS'LOLO PASS'
p4915
aS'RD'
p4916
aS'RHODODENDRON'
p4917
aS'OR'
p4918
aS'97049'
p4919
aa(lp4920
S'716'
p4921
ag1052
aS'MAIN'
p4922
aS'ST'
p4923
aS'MOLALLA'
p4924
aS'OR'
p4925
aS'97038'
p4926
aa(lp4927
S'10174'
p4928
ag910
aS'MAPLE GROVE'
p4929
aS'RD'
p4930
aS'MOLALLA'
p4931
aS'OR'
p4932
aS'97038'
p4933
aa(lp4934
S'29385'
p4935
ag910
aS'NEEDY'
p4936
aS'RD'
p4937
aS'CANBY'
p4938
aS'OR'
p4939
aS'97013'
p4940
aa(lp4941
S'13261'
p4942
ag250
aS'DEER MEADOWS'
p4943
aS'RD'
p4944
aS'OREGON CITY'
p4945
aS'OR'
p4946
aS'97045'
p4947
aa(lp4948
S'10016'
p4949
aS'SE'
p4950
aS'250TH'
p4951
aS'AVE'
p4952
aS'DAMASCUS'
p4953
aS'OR'
p4954
aS'97089'
p4955
aa(lp4956
S'3435'
p4957
aS'SE'
p4958
aS'ALDERCREST'
p4959
aS'RD'
p4960
aS'MILWAUKIE'
p4961
aS'OR'
p4962
aS'97222'
p4963
aa(lp4964
S'33435'
p4965
aS'SE'
p4966
aS'BROOKS'
p4967
aS'RD'
p4968
aS'BORING'
p4969
aS'OR'
p4970
aS'97009'
p4971
aa(lp4972
S'7610'
p4973
aS'SW'
p4974
aS'ARBOR GLEN'
p4975
aS'CT'
p4976
aS'WILSONVILLE'
p4977
aS'OR'
p4978
aS'97070'
p4979
aa(lp4980
S'15230'
p4981
aS'SE'
p4982
aS'82ND'
p4983
aS'DR'
p4984
aS'CLACKAMAS'
p4985
aS'OR'
p4986
aS'97015'
p4987
aa(lp4988
S'15540'
p4989
ag250
aS'HERITAGE'
p4990
aS'CT'
p4991
aS'LAKE OSWEGO'
p4992
aS'OR'
p4993
aS'97035'
p4994
aa(lp4995
S'25720'
p4996
aS'SE'
p4997
aS'EAGLE CREEK'
p4998
aS'RD'
p4999
aS'EAGLE CREEK'
p5000
aS'OR'
p5001
aS'97022'
p5002
aa(lp5003
S'583'
p5004
ag250
aS'2ND'
p5005
aS'ST'
p5006
aS'LAKE OSWEGO'
p5007
aS'OR'
p5008
aS'97034'
p5009
aa(lp5010
S'9851'
p5011
aS'SE'
p5012
aS'KING'
p5013
aS'WAY'
p5014
aS'HAPPY VALLEY'
p5015
aS'OR'
p5016
aS'97086'
p5017
aa(lp5018
S'32880'
p5019
ag910
aS'SAWTELL'
p5020
aS'RD'
p5021
aS'MOLALLA'
p5022
aS'OR'
p5023
aS'97038'
p5024
aa(lp5025
S'1712'
p5026
ag250
aS'MEADOWS'
p5027
aS'DR'
p5028
aS'LAKE OSWEGO'
p5029
aS'OR'
p5030
aS'97034'
p5031
aa(lp5032
S'7576'
p5033
aS'SW'
p5034
aS'WIMBLEDON'
p5035
aS'CT'
p5036
aS'WILSONVILLE'
p5037
aS'OR'
p5038
aS'97070'
p5039
aa(lp5040
S'7615'
p5041
aS'SE'
p5042
aS'SUNNYSIDE'
p5043
aS'DR'
p5044
aS'MILWAUKIE'
p5045
aS'OR'
p5046
aS'97222'
p5047
aa(lp5048
S'16830'
p5049
ag910
aS'SPRINGWATER'
p5050
aS'RD'
p5051
aS'OREGON CITY'
p5052
aS'OR'
p5053
aS'97045'
p5054
aa(lp5055
S'6803'
p5056
aS'SE'
p5057
aS'OVERLAND'
p5058
aS'ST'
p5059
aS'MILWAUKIE'
p5060
aS'OR'
p5061
aS'97222'
p5062
aa(lp5063
S'31147'
p5064
aS'SW'
p5065
aS'WILLAMETTE WAY'
p5066
ag2885
aS'WILSONVILLE'
p5067
aS'OR'
p5068
aS'97070'
p5069
aa(lp5070
S'14585'
p5071
aS'NE'
p5072
aS'ARNDT'
p5073
aS'RD'
p5074
aS'AURORA'
p5075
aS'OR'
p5076
aS'97002'
p5077
aa(lp5078
S'881'
p5079
ag250
aS'LINN'
p5080
aS'AVE'
p5081
aS'OREGON CITY'
p5082
aS'OR'
p5083
aS'97045'
p5084
aa(lp5085
S'22791'
p5086
aS'SW'
p5087
aS'ULSKY'
p5088
aS'RD'
p5089
aS'WEST LINN'
p5090
aS'OR'
p5091
aS'97068'
p5092
aa(lp5093
S'11010'
p5094
aS'SE'
p5095
aS'55TH'
p5096
aS'AVE'
p5097
aS'MILWAUKIE'
p5098
aS'OR'
p5099
aS'97222'
p5100
aa(lp5101
S'9610'
p5102
aS'SE'
p5103
aS'NICHOLAS'
p5104
aS'DR'
p5105
aS'HAPPY VALLEY'
p5106
aS'OR'
p5107
aS'97086'
p5108
aa(lp5109
S'38491'
p5110
ag250
aS'DUBARKO'
p5111
aS'RD'
p5112
aS'SANDY'
p5113
aS'OR'
p5114
aS'97055'
p5115
aa(lp5116
S'14123'
p5117
aS'SE'
p5118
aS'UPPER ALDERCREST'
p5119
aS'DR'
p5120
aS'MILWAUKIE'
p5121
aS'OR'
p5122
aS'97267'
p5123
aa(lp5124
S'5495'
p5125
ag250
aS'ABERNETHY'
p5126
aS'CT'
p5127
aS'GLADSTONE'
p5128
aS'OR'
p5129
aS'97027'
p5130
aa(lp5131
S'15117'
p5132
aS'SE'
p5133
aS'RIVER'
p5134
aS'RD'
p5135
aS'MILWAUKIE'
p5136
aS'OR'
p5137
aS'97267'
p5138
aa(lp5139
S'12122'
p5140
aS'SE'
p5141
aS'272ND'
p5142
aS'AVE'
p5143
aS'BORING'
p5144
aS'OR'
p5145
aS'97009'
p5146
aa(lp5147
S'3636'
p5148
aS'SE'
p5149
aS'KING'
p5150
aS'RD'
p5151
aS'MILWAUKIE'
p5152
aS'OR'
p5153
aS'97222'
p5154
aa(lp5155
S'39575'
p5156
ag250
aS'DUBARKO'
p5157
aS'RD'
p5158
aS'SANDY'
p5159
aS'OR'
p5160
aS'97055'
p5161
aa(lp5162
S'45825'
p5163
aS'SE'
p5164
aS'PAGH'
p5165
aS'RD'
p5166
aS'SANDY'
p5167
aS'OR'
p5168
aS'97055'
p5169
aa(lp5170
S'21434'
p5171
ag910
aS'RICHARD'
p5172
aS'CT'
p5173
aS'OREGON CITY'
p5174
aS'OR'
p5175
aS'97045'
p5176
aa(lp5177
S'1059'
p5178
ag250
aS'DEVON'
p5179
aS'LN'
p5180
aS'LAKE OSWEGO'
p5181
aS'OR'
p5182
aS'97034'
p5183
aa(lp5184
S'6564'
p5185
aS'SE'
p5186
aS'KETCHUM'
p5187
aS'ST'
p5188
aS'MILWAUKIE'
p5189
aS'OR'
p5190
aS'97267'
p5191
aa(lp5192
S'2500'
p5193
ag250
aS'PARK'
p5194
aS'RD'
p5195
aS'LAKE OSWEGO'
p5196
aS'OR'
p5197
aS'97034'
p5198
aa(lp5199
S'9885'
p5200
aS'SE'
p5201
aS'222ND'
p5202
aS'DR'
p5203
aS'DAMASCUS'
p5204
aS'OR'
p5205
aS'97089'
p5206
aa(lp5207
S'36250'
p5208
aS'SE'
p5209
aS'DOUGLASS'
p5210
aS'RD'
p5211
aS'EAGLE CREEK'
p5212
aS'OR'
p5213
aS'97022'
p5214
aa(lp5215
S'1973'
p5216
aS'SE'
p5217
aS'PAPPASLOSS'
p5218
aS'CT'
p5219
aS'MILWAUKIE'
p5220
aS'OR'
p5221
aS'97267'
p5222
aa(lp5223
S'18440'
p5224
aS'SE'
p5225
aS'FOSTER'
p5226
aS'RD'
p5227
aS'DAMASCUS'
p5228
aS'OR'
p5229
aS'97089'
p5230
aa(lp5231
S'3670'
p5232
ag250
aS'SUMMERLINN'
p5233
aS'DR'
p5234
aS'WEST LINN'
p5235
aS'OR'
p5236
aS'97068'
p5237
aa(lp5238
S'9162'
p5239
aS'SE'
p5240
aS'HAMILTON'
p5241
aS'LN'
p5242
aS'HAPPY VALLEY'
p5243
aS'OR'
p5244
aS'97086'
p5245
aa(lp5246
S'2290'
p5247
aS'SW'
p5248
aS'BORLAND'
p5249
aS'RD'
p5250
aS'WEST LINN'
p5251
aS'OR'
p5252
aS'97068'
p5253
aa(lp5254
S'26700'
p5255
aS'SE'
p5256
aS'SAMUELS'
p5257
aS'RD'
p5258
aS'EAGLE CREEK'
p5259
aS'OR'
p5260
aS'97022'
p5261
aa(lp5262
S'3300'
p5263
ag250
aS'WEMBLEY PARK'
p5264
aS'RD'
p5265
aS'LAKE OSWEGO'
p5266
aS'OR'
p5267
aS'97034'
p5268
aa(lp5269
S'7012'
p5270
aS'SE'
p5271
aS'HAZEL'
p5272
aS'ST'
p5273
aS'PORTLAND'
p5274
aS'OR'
p5275
aS'97206'
p5276
aa(lp5277
S'14219'
p5278
ag250
aS'RUSS WILCOX'
p5279
aS'WAY'
p5280
aS'OREGON CITY'
p5281
aS'OR'
p5282
aS'97045'
p5283
aa(lp5284
S'14762'
p5285
ag250
aS'HUDSON BAY'
p5286
aS'WAY'
p5287
aS'OREGON CITY'
p5288
aS'OR'
p5289
aS'97045'
p5290
aa(lp5291
S'1965'
p5292
ag250
aS'HILLHOUSE'
p5293
aS'DR'
p5294
aS'WEST LINN'
p5295
aS'OR'
p5296
aS'97068'
p5297
aa(lp5298
S'31115'
p5299
ag1052
aS'MULTORPOR'
p5300
aS'DR'
p5301
aS'GOVERNMENT CAMP'
p5302
aS'OR'
p5303
aS'97028'
p5304
aa(lp5305
S'18108'
p5306
aS'SE'
p5307
aS'ADDIE'
p5308
aS'ST'
p5309
aS'MILWAUKIE'
p5310
aS'OR'
p5311
aS'97267'
p5312
aa(lp5313
S'5817'
p5314
aS'SW'
p5315
aS'KENNY'
p5316
aS'ST'
p5317
aS'LAKE OSWEGO'
p5318
aS'OR'
p5319
aS'97035'
p5320
aa(lp5321
S'6586'
p5322
ag250
aS'ARTEMIS'
p5323
aS'LN'
p5324
aS'WEST LINN'
p5325
aS'OR'
p5326
aS'97068'
p5327
aa(lp5328
S'15414'
p5329
aS'SE'
p5330
aS'IVY CREEK'
p5331
aS'ST'
p5332
aS'HAPPY VALLEY'
p5333
aS'OR'
p5334
aS'97086'
p5335
aa(lp5336
S'25215'
p5337
aS'SW'
p5338
aS'MOUNTAIN'
p5339
aS'RD'
p5340
aS'WEST LINN'
p5341
aS'OR'
p5342
aS'97068'
p5343
aa(lp5344
S'12018'
p5345
aS'SE'
p5346
aS'SEQUOIA'
p5347
aS'AVE'
p5348
aS'MILWAUKIE'
p5349
aS'OR'
p5350
aS'97222'
p5351
aa(lp5352
S'13990'
p5353
ag910
aS'MACKSBURG'
p5354
aS'RD'
p5355
aS'MOLALLA'
p5356
aS'OR'
p5357
aS'97038'
p5358
aa(lp5359
S'17339'
p5360
ag250
aS'BLUE HERON'
p5361
aS'RD'
p5362
aS'LAKE OSWEGO'
p5363
aS'OR'
p5364
aS'97034'
p5365
aa(lp5366
S'32369'
p5367
ag910
aS'WRIGHT'
p5368
aS'RD'
p5369
aS'MOLALLA'
p5370
aS'OR'
p5371
aS'97038'
p5372
aa(lp5373
S'8865'
p5374
aS'SE'
p5375
aS'BRISTOL PARK'
p5376
aS'DR'
p5377
aS'HAPPY VALLEY'
p5378
aS'OR'
p5379
aS'97086'
p5380
aa(lp5381
S'15701'
p5382
aS'SW'
p5383
aS'OBERST'
p5384
aS'LN'
p5385
aS'SHERWOOD'
p5386
aS'OR'
p5387
aS'97140'
p5388
aa(lp5389
S'1611'
p5390
aS'SE'
p5391
aS'10TH'
p5392
aS'PL'
p5393
aS'CANBY'
p5394
aS'OR'
p5395
aS'97013'
p5396
aa(lp5397
S'14492'
p5398
ag250
aS'THAYER'
p5399
aS'RD'
p5400
aS'OREGON CITY'
p5401
aS'OR'
p5402
aS'97045'
p5403
aa(lp5404
S'11880'
p5405
aS'SW'
p5406
aS'BARCELONA'
p5407
aS'ST'
p5408
aS'WILSONVILLE'
p5409
aS'OR'
p5410
aS'97070'
p5411
aa(lp5412
S'4230'
p5413
ag250
aS'SUMMERLINN DR BLDG'
p5414
aS'4200'
p5415
aS'WEST LINN'
p5416
aS'OR'
p5417
aS'97068'
p5418
aa(lp5419
S'9250'
p5420
aS'SW'
p5421
aS'4TH'
p5422
aS'ST'
p5423
aS'WILSONVILLE'
p5424
aS'OR'
p5425
aS'97070'
p5426
aa(lp5427
S'21138'
p5428
ag910
aS'SOUTH END'
p5429
aS'RD'
p5430
aS'OREGON CITY'
p5431
aS'OR'
p5432
aS'97045'
p5433
aa(lp5434
S'8577'
p5435
aS'SE'
p5436
aS'BRISTOL PARK'
p5437
aS'DR'
p5438
aS'HAPPY VALLEY'
p5439
aS'OR'
p5440
aS'97086'
p5441
aa(lp5442
S'8'
p5443
ag250
aS'BRITTEN'
p5444
aS'CT'
p5445
aS'LAKE OSWEGO'
p5446
aS'OR'
p5447
aS'97035'
p5448
aa(lp5449
S'155'
p5450
ag250
aS'TOLIVER'
p5451
aS'CT'
p5452
aS'MOLALLA'
p5453
aS'OR'
p5454
aS'97038'
p5455
aa(lp5456
S'16652'
p5457
ag250
aS'WOODSMAN'
p5458
aS'CT'
p5459
aS'LAKE OSWEGO'
p5460
aS'OR'
p5461
aS'97034'
p5462
aa(lp5463
S'11334'
p5464
aS'SE'
p5465
aS'AQUILA'
p5466
aS'ST'
p5467
aS'HAPPY VALLEY'
p5468
aS'OR'
p5469
aS'97086'
p5470
aa(lp5471
S'14491'
p5472
ag910
aS'ALDER CREEK'
p5473
aS'LN'
p5474
aS'MULINO'
p5475
aS'OR'
p5476
aS'97042'
p5477
aa(lp5478
S'43508'
p5479
aS'SE'
p5480
aS'PAGH'
p5481
aS'RD'
p5482
aS'SANDY'
p5483
aS'OR'
p5484
aS'97055'
p5485
aa(lp5486
S'10950'
p5487
aS'SE'
p5488
aS'GREEN VALLEY'
p5489
aS'DR'
p5490
aS'SANDY'
p5491
aS'OR'
p5492
aS'97055'
p5493
aa(lp5494
S'12215'
p5495
aS'SE'
p5496
aS'JUNIPER'
p5497
aS'ST'
p5498
aS'MILWAUKIE'
p5499
aS'OR'
p5500
aS'97222'
p5501
aa(lp5502
S'14890'
p5503
ag910
aS'SPRINGWATER'
p5504
aS'RD'
p5505
aS'OREGON CITY'
p5506
aS'OR'
p5507
aS'97045'
p5508
aa(lp5509
S'4701'
p5510
aS'SE'
p5511
aS'MELDRUM'
p5512
aS'AVE'
p5513
aS'MILWAUKIE'
p5514
aS'OR'
p5515
aS'97267'
p5516
aa(lp5517
S'18630'
p5518
aS'SE'
p5519
aS'SUNNYSIDE'
p5520
aS'RD'
p5521
aS'DAMASCUS'
p5522
aS'OR'
p5523
aS'97089'
p5524
aa(lp5525
S'9757'
p5526
aS'SE'
p5527
aS'SUNNYSIDE'
p5528
aS'RD'
p5529
aS'CLACKAMAS'
p5530
aS'OR'
p5531
aS'97015'
p5532
aa(lp5533
S'7731'
p5534
aS'SE'
p5535
aS'JOHNSON CREEK'
p5536
aS'BLVD'
p5537
aS'PORTLAND'
p5538
aS'OR'
p5539
aS'97206'
p5540
aa(lp5541
S'8675'
p5542
aS'SW'
p5543
aS'METOLIUS'
p5544
aS'LN'
p5545
aS'WILSONVILLE'
p5546
aS'OR'
p5547
aS'97070'
p5548
aa(lp5549
S'6314'
p5550
aS'SE'
p5551
aS'JENNINGS'
p5552
aS'AVE'
p5553
aS'MILWAUKIE'
p5554
aS'OR'
p5555
aS'97267'
p5556
aa(lp5557
S'15114'
p5558
ag910
aS'LELAND'
p5559
aS'RD'
p5560
aS'BEAVERCREEK'
p5561
aS'OR'
p5562
aS'97004'
p5563
aa(lp5564
S'4833'
p5565
aS'SE'
p5566
aS'GLEN ECHO'
p5567
aS'AVE'
p5568
aS'MILWAUKIE'
p5569
aS'OR'
p5570
aS'97267'
p5571
aa(lp5572
S'11100'
p5573
aS'SE'
p5574
aS'VISTA VIEW'
p5575
aS'LN'
p5576
aS'HAPPY VALLEY'
p5577
aS'OR'
p5578
aS'97086'
p5579
aa(lp5580
S'10885'
p5581
aS'SW'
p5582
aS'PARKWOOD'
p5583
aS'CT'
p5584
aS'WILSONVILLE'
p5585
aS'OR'
p5586
aS'97070'
p5587
aa(lp5588
S'17937'
p5589
ag250
aS'CARDINAL'
p5590
aS'DR'
p5591
aS'LAKE OSWEGO'
p5592
aS'OR'
p5593
aS'97034'
p5594
aa(lp5595
S'55'
p5596
ag250
aS'NORTH SHORE RD UNIT'
p5597
aS'7'
p5598
aS'LAKE OSWEGO'
p5599
aS'OR'
p5600
aS'97034'
p5601
aa(lp5602
S'16862'
p5603
ag910
aS'HOWARDS MILL'
p5604
aS'RD'
p5605
aS'BEAVERCREEK'
p5606
aS'OR'
p5607
aS'97004'
p5608
aa(lp5609
S'38580'
p5610
ag250
aS'SANDY HEIGHTS'
p5611
aS'ST'
p5612
aS'SANDY'
p5613
aS'OR'
p5614
aS'97055'
p5615
aa(lp5616
S'68150'
p5617
ag1052
aS'FAIRWAY AVE UNIT'
p5618
aS'147'
p5619
aS'WELCHES'
p5620
aS'OR'
p5621
aS'97067'
p5622
aa(lp5623
S'12109'
p5624
aS'SE'
p5625
aS'116TH'
p5626
aS'CT'
p5627
aS'HAPPY VALLEY'
p5628
aS'OR'
p5629
aS'97086'
p5630
aa(lp5631
S'8600'
p5632
aS'SE'
p5633
aS'82ND'
p5634
aS'AVE'
p5635
aS'HAPPY VALLEY'
p5636
aS'OR'
p5637
aS'97086'
p5638
aa(lp5639
S'49833'
p5640
aS'SE'
p5641
aS'COALMAN'
p5642
aS'RD'
p5643
aS'SANDY'
p5644
aS'OR'
p5645
aS'97055'
p5646
aa(lp5647
S'1653'
p5648
ag250
aS'SKYE'
p5649
aS'PKWY'
p5650
aS'WEST LINN'
p5651
aS'OR'
p5652
aS'97068'
p5653
aa(lp5654
S'35013'
p5655
ag910
aS'SAWTELL'
p5656
aS'RD'
p5657
aS'MOLALLA'
p5658
aS'OR'
p5659
aS'97038'
p5660
aa(lp5661
S'13485'
p5662
aS'SE'
p5663
aS'222ND'
p5664
aS'DR'
p5665
aS'DAMASCUS'
p5666
aS'OR'
p5667
aS'97089'
p5668
aa(lp5669
S'64667'
p5670
ag1052
aS'SANDY RIVER'
p5671
aS'LN'
p5672
aS'RHODODENDRON'
p5673
aS'OR'
p5674
aS'97049'
p5675
aa(lp5676
S'17397'
p5677
ag910
aS'HOLLY'
p5678
aS'LN'
p5679
aS'OREGON CITY'
p5680
aS'OR'
p5681
aS'97045'
p5682
aa(lp5683
S'1315'
p5684
aS'SE'
p5685
aS'COURTNEY'
p5686
aS'AVE'
p5687
aS'MILWAUKIE'
p5688
aS'OR'
p5689
aS'97222'
p5690
aa(lp5691
S'20585'
p5692
ag910
aS'SOUTH END'
p5693
aS'RD'
p5694
aS'OREGON CITY'
p5695
aS'OR'
p5696
aS'97045'
p5697
aa(lp5698
S'13849'
p5699
aS'SE'
p5700
aS'MOUNTAIN CREST'
p5701
aS'DR'
p5702
aS'HAPPY VALLEY'
p5703
aS'OR'
p5704
aS'97086'
p5705
aa(lp5706
S'1358'
p5707
aS'SE'
p5708
aS'YEW'
p5709
aS'ST'
p5710
aS'MILWAUKIE'
p5711
aS'OR'
p5712
aS'97267'
p5713
aa(lp5714
S'39775'
p5715
aS'SE'
p5716
aS'KITZMILLER'
p5717
aS'RD'
p5718
aS'EAGLE CREEK'
p5719
aS'OR'
p5720
aS'97022'
p5721
aa(lp5722
S'128'
p5723
ag250
aS'NORTH SHORE'
p5724
aS'RD'
p5725
aS'LAKE OSWEGO'
p5726
aS'OR'
p5727
aS'97034'
p5728
aa(lp5729
S'595'
p5730
ag250
aS'BARCLAY HILLS'
p5731
aS'DR'
p5732
aS'OREGON CITY'
p5733
aS'OR'
p5734
aS'97045'
p5735
aa(lp5736
S'51191'
p5737
aS'SE'
p5738
aS'CHERRYVILLE'
p5739
aS'DR'
p5740
aS'SANDY'
p5741
aS'OR'
p5742
aS'97055'
p5743
aa(lp5744
S'10236'
p5745
aS'SE'
p5746
aS'TELFORD'
p5747
aS'RD'
p5748
aS'BORING'
p5749
aS'OR'
p5750
aS'97009'
p5751
aa(lp5752
S'44814'
p5753
aS'SE'
p5754
aS'TUMALA MOUNTAIN'
p5755
aS'RD'
p5756
aS'ESTACADA'
p5757
aS'OR'
p5758
aS'97023'
p5759
aa(lp5760
S'1347'
p5761
aS'SE'
p5762
aS'11TH'
p5763
aS'LOOP'
p5764
aS'CANBY'
p5765
aS'OR'
p5766
aS'97013'
p5767
aa(lp5768
S'920'
p5769
ag123
aS'ASPEN'
p5770
aS'CT'
p5771
aS'CANBY'
p5772
aS'OR'
p5773
aS'97013'
p5774
aa(lp5775
S'8052'
p5776
aS'SW'
p5777
aS'KINGFISHER'
p5778
aS'WAY'
p5779
aS'DURHAM'
p5780
aS'OR'
p5781
aS'97224'
p5782
aa(lp5783
S'17327'
p5784
aS'SW'
p5785
aS'FOREST HOLLOW'
p5786
aS'ST'
p5787
aS'BEAVERTON'
p5788
aS'OR'
p5789
aS'97007'
p5790
aa(lp5791
S'16193'
p5792
aS'NW'
p5793
aS'CANTERWOOD'
p5794
aS'WAY'
p5795
aS'PORTLAND'
p5796
aS'OR'
p5797
aS'97229'
p5798
aa(lp5799
S'1000'
p5800
aS'SW'
p5801
aS'BASELINE'
p5802
aS'ST'
p5803
aS'HILLSBORO'
p5804
aS'OR'
p5805
aS'97123'
p5806
aa(lp5807
S'22743'
p5808
aS'SW'
p5809
aS'SAUNDERS'
p5810
aS'DR'
p5811
aS'SHERWOOD'
p5812
aS'OR'
p5813
aS'97140'
p5814
aa(lp5815
S'10454'
p5816
aS'SW'
p5817
aS'AKILEAN'
p5818
aS'TER'
p5819
aS'Tigard'
p5820
aS'OR'
p5821
aS'97223'
p5822
aa(lp5823
S'1833'
p5824
ag250
aS'PACIFIC'
p5825
aS'AVE'
p5826
aS'FORESTGROVE'
p5827
aS'OR'
p5828
aS'97116'
p5829
aa(lp5830
S'13960'
p5831
aS'SW'
p5832
aS'164TH'
p5833
aS'AVE'
p5834
aS'PORTLAND'
p5835
aS'OR'
p5836
aS'97223'
p5837
aa(lp5838
S'8110'
p5839
aS'SW'
p5840
aS'DURHAM'
p5841
aS'RD'
p5842
aS'TIGARD'
p5843
aS'OR'
p5844
aS'97224'
p5845
aa(lp5846
S'18740'
p5847
aS'NW'
p5848
aS'ROCK CREEK'
p5849
aS'CIR'
p5850
aS'PORTLAND'
p5851
aS'OR'
p5852
aS'97229'
p5853
aa(lp5854
S'4614'
p5855
aS'NE'
p5856
aS'AZALEA'
p5857
aS'LN'
p5858
aS'HILLSBORO'
p5859
aS'OR'
p5860
aS'97124'
p5861
aa(lp5862
S'21519'
p5863
aS'SW'
p5864
aS'WALLACE'
p5865
aS'PL'
p5866
aS'SHERWOOD'
p5867
aS'OR'
p5868
aS'97140'
p5869
aa(lp5870
S'23024'
p5871
aS'NW'
p5872
aS'TIMBER'
p5873
aS'RD'
p5874
aS'TIMBER'
p5875
aS'OR'
p5876
aS'97144'
p5877
aa(lp5878
S'16063'
p5879
aS'SW'
p5880
aS'WAXWING'
p5881
aS'WAY'
p5882
aS'BEAVERTON'
p5883
aS'OR'
p5884
aS'97007'
p5885
aa(lp5886
S'15895'
p5887
aS'SW'
p5888
aS'76TH'
p5889
aS'AVE'
p5890
aS'TIGARD'
p5891
aS'OR'
p5892
aS'97224'
p5893
aa(lp5894
S'5400'
p5895
aS'SW'
p5896
aS'180TH'
p5897
aS'AVE'
p5898
aS'WASHINGTON CO'
p5899
aS'OR'
p5900
aS'97078'
p5901
aa(lp5902
S'15662'
p5903
aS'SW'
p5904
aS'BARRINGTON'
p5905
aS'TER'
p5906
aS'TIGARD'
p5907
aS'OR'
p5908
aS'97224'
p5909
aa(lp5910
S'14095'
p5911
aS'SW'
p5912
aS'WALKER'
p5913
aS'RD'
p5914
aS'BEAVERTON'
p5915
aS'OR'
p5916
aS'97005'
p5917
aa(lp5918
S'18589'
p5919
aS'NW'
p5920
aS'RED WING'
p5921
aS'WAY'
p5922
aS'Hillsboro'
p5923
aS'OR'
p5924
aS'97006'
p5925
aa(lp5926
S'8645'
p5927
aS'SW'
p5928
aS'71ST'
p5929
aS'TER'
p5930
aS'PORTLAND'
p5931
aS'OR'
p5932
aS'97223'
p5933
aa(lp5934
S'1890'
p5935
aS'NE'
p5936
aS'ASHBERRY'
p5937
aS'DR'
p5938
aS'HILLSBORO'
p5939
aS'OR'
p5940
aS'97124'
p5941
aa(lp5942
S'42480'
p5943
aS'NW'
p5944
aS'WILKES'
p5945
aS'ST'
p5946
aS'BANKS'
p5947
aS'OR'
p5948
aS'97106'
p5949
aa(lp5950
S'1064'
p5951
ag250
aS'ANDY'
p5952
aS'AVE'
p5953
aS'FOREST GROVE'
p5954
aS'OR'
p5955
aS'97116'
p5956
aa(lp5957
S'1794'
p5958
aS'NE'
p5959
aS'ORENCO STATION'
p5960
aS'PKWY'
p5961
aS'HILLSBORO'
p5962
aS'OR'
p5963
aS'97124'
p5964
aa(lp5965
S'10577'
p5966
aS'NW'
p5967
aS'303RD'
p5968
aS'PL'
p5969
aS'NORTH PLAINS'
p5970
aS'OR'
p5971
aS'97133'
p5972
aa(lp5973
S'12855'
p5974
aS'SW'
p5975
aS'17TH'
p5976
aS'ST'
p5977
aS'BEAVERTON'
p5978
aS'OR'
p5979
aS'97008'
p5980
aa(lp5981
S'1309'
p5982
ag250
aS'SETTLERS'
p5983
aS'LOOP'
p5984
aS'FORESTGROVE'
p5985
aS'OR'
p5986
aS'97116'
p5987
aa(lp5988
S'1351'
p5989
aS'NE'
p5990
aS'KENNEDY'
p5991
aS'LN'
p5992
aS'HILLSBORO'
p5993
aS'OR'
p5994
aS'97124'
p5995
aa(lp5996
S'9120'
p5997
aS'SW'
p5998
aS'313TH'
p5999
aS'AVE'
p6000
aS'CORNELIUS'
p6001
aS'OR'
p6002
aS'97113'
p6003
aa(lp6004
S'8729'
p6005
aS'SW'
p6006
aS'BRIGHTFIELD'
p6007
aS'CIR'
p6008
aS'BEAVERTON'
p6009
aS'OR'
p6010
aS'97223'
p6011
aa(lp6012
S'16295'
p6013
aS'SW'
p6014
aS'85TH'
p6015
aS'AVE'
p6016
aS'TIGARD'
p6017
aS'OR'
p6018
aS'97224'
p6019
aa(lp6020
S'18652'
p6021
aS'SW'
p6022
aS'MAPLEOAK'
p6023
aS'LN'
p6024
aS'WASHINGTON CO'
p6025
aS'OR'
p6026
aS'97003'
p6027
aa(lp6028
S'11777'
p6029
aS'SW'
p6030
aS'QUEEN ELIZABETH'
p6031
aS'ST'
p6032
aS'KING CITY'
p6033
aS'OR'
p6034
aS'97224'
p6035
aa(lp6036
S'780'
p6037
aS'NE'
p6038
aS'RETFORD'
p6039
aS'AVE'
p6040
aS'HILLSBORO'
p6041
aS'OR'
p6042
aS'97124'
p6043
aa(lp6044
S'19705'
p6045
aS'SW'
p6046
aS'BOONES FERRY'
p6047
aS'RD'
p6048
aS'TUALATIN'
p6049
aS'OR'
p6050
aS'97062'
p6051
aa(lp6052
S'161'
p6053
aS'NE'
p6054
aS'9TH'
p6055
aS'AVE'
p6056
aS'HILLSBORO'
p6057
aS'OR'
p6058
aS'97124'
p6059
aa(lp6060
S'13355'
p6061
aS'SW'
p6062
aS'AIREY'
p6063
aS'PL'
p6064
aS'GASTON'
p6065
aS'OR'
p6066
aS'97119'
p6067
aa(lp6068
S'19915'
p6069
aS'SW'
p6070
aS'112TH'
p6071
aS'AVE'
p6072
aS'Tualatin'
p6073
aS'OR'
p6074
aS'97062'
p6075
aa(lp6076
S'13110'
p6077
aS'SW'
p6078
aS'ASCENSION'
p6079
aS'DR'
p6080
aS'TIGARD'
p6081
aS'OR'
p6082
aS'97223'
p6083
aa(lp6084
S'2739'
p6085
ag250
aS'18TH'
p6086
aS'AVE'
p6087
aS'FORESTGROVE'
p6088
aS'OR'
p6089
aS'97116'
p6090
aa(lp6091
S'12415'
p6092
aS'SW'
p6093
aS'KING RICHARD'
p6094
aS'DR'
p6095
aS'KING CITY'
p6096
aS'OR'
p6097
aS'97224'
p6098
aa(lp6099
S'6135'
p6100
aS'SW'
p6101
aS'CHERRYHILL'
p6102
aS'DR'
p6103
aS'BEAVERTON'
p6104
aS'OR'
p6105
aS'97008'
p6106
aa(lp6107
S'7150'
p6108
aS'SW'
p6109
aS'HYLAND WAY'
p6110
aS'CT'
p6111
aS'BEAVERTON'
p6112
aS'OR'
p6113
aS'97008'
p6114
aa(lp6115
S'12844'
p6116
aS'NW'
p6117
aS'CORNELL'
p6118
aS'RD'
p6119
aS'PORTLAND'
p6120
aS'OR'
p6121
aS'97229'
p6122
aa(lp6123
S'113'
p6124
aS'NW'
p6125
aS'FREEMAN'
p6126
aS'AVE'
p6127
aS'HILLSBORO'
p6128
aS'OR'
p6129
aS'97124'
p6130
aa(lp6131
S'4035'
p6132
aS'SE'
p6133
aS'CEDAR'
p6134
aS'ST'
p6135
aS'HILLSBORO'
p6136
aS'OR'
p6137
aS'97123'
p6138
aa(lp6139
S'15189'
p6140
aS'SW'
p6141
aS'CANYON WREN'
p6142
aS'WAY'
p6143
aS'Beaverton'
p6144
aS'OR'
p6145
aS'97007'
p6146
aa(lp6147
S'9920'
p6148
aS'SW'
p6149
aS'TIGARD'
p6150
aS'ST'
p6151
aS'TIGARD'
p6152
aS'OR'
p6153
aS'97223'
p6154
aa(lp6155
S'7550'
p6156
aS'SW'
p6157
aS'SCHOLLS FERRY'
p6158
aS'RD'
p6159
aS'BEAVERTON'
p6160
aS'OR'
p6161
aS'97008'
p6162
aa(lp6163
S'7165'
p6164
aS'SW'
p6165
aS'SAGERT'
p6166
aS'ST'
p6167
aS'TUALATIN'
p6168
aS'OR'
p6169
aS'97062'
p6170
aa(lp6171
S'15230'
p6172
aS'SW'
p6173
aS'PARKLAND'
p6174
aS'TER'
p6175
aS'TIGARD'
p6176
aS'OR'
p6177
aS'97224'
p6178
aa(lp6179
S'7018'
p6180
aS'SW'
p6181
aS'180TH'
p6182
aS'PL'
p6183
aS'BEAVERTON'
p6184
aS'OR'
p6185
aS'97007'
p6186
aa(lp6187
S'11945'
p6188
aS'SW'
p6189
aS'CENTER'
p6190
aS'ST'
p6191
aS'BEAVERTON'
p6192
aS'OR'
p6193
aS'97005'
p6194
aa(lp6195
S'20881'
p6196
aS'NW'
p6197
aS'TRAILWALK'
p6198
aS'DR'
p6199
aS'HILLSBORO'
p6200
aS'OR'
p6201
aS'97006'
p6202
aa(lp6203
S'17780'
p6204
aS'SW'
p6205
aS'ROBERT'
p6206
aS'LN'
p6207
aS'BEAVERTON'
p6208
aS'OR'
p6209
aS'97078'
p6210
aa(lp6211
S'460'
p6212
aS'SW'
p6213
aS'ARMCO'
p6214
aS'AVE'
p6215
aS'HILLSBORO'
p6216
aS'OR'
p6217
aS'97123'
p6218
aa(lp6219
S'13700'
p6220
aS'SW'
p6221
aS'WRIGHTWOOD'
p6222
aS'CT'
p6223
aS'TIGARD'
p6224
aS'OR'
p6225
aS'97224'
p6226
aa(lp6227
S'18755'
p6228
aS'SW'
p6229
aS'90TH'
p6230
aS'AVE'
p6231
aS'TUALATIN'
p6232
aS'OR'
p6233
aS'97062'
p6234
aa(lp6235
S'3230'
p6236
aS'SW'
p6237
aS'87TH'
p6238
aS'AVE'
p6239
aS'BEAVERTON'
p6240
aS'OR'
p6241
aS'97225'
p6242
aa(lp6243
S'8910'
p6244
aS'SW'
p6245
aS'SAGERT'
p6246
aS'ST'
p6247
aS'TUALATIN'
p6248
aS'OR'
p6249
aS'97062'
p6250
aa(lp6251
S'10958'
p6252
aS'SW'
p6253
aS'DURHAM'
p6254
aS'RD'
p6255
aS'TIGARD'
p6256
aS'OR'
p6257
aS'97224'
p6258
aa(lp6259
S'1510'
p6260
ag250
aS'SNAPDRAGON'
p6261
aS'LN'
p6262
aS'FORESTGROVE'
p6263
aS'OR'
p6264
aS'97116'
p6265
aa(lp6266
S'14630'
p6267
aS'SW'
p6268
aS'TOPAZ'
p6269
aS'LN'
p6270
aS'BEAVERTON'
p6271
aS'OR'
p6272
aS'97007'
p6273
aa(lp6274
S'15149'
p6275
aS'SW'
p6276
aS'ASHLEY'
p6277
aS'DR'
p6278
aS'TIGARD'
p6279
aS'OR'
p6280
aS'97224'
p6281
aa(lp6282
S'19605'
p6283
aS'SW'
p6284
aS'BOONES FERRY'
p6285
aS'RD'
p6286
aS'TUALATIN'
p6287
aS'OR'
p6288
aS'97062'
p6289
aa(lp6290
S'8414'
p6291
aS'SW'
p6292
aS'OLESON'
p6293
aS'RD'
p6294
aS'PORTLAND'
p6295
aS'OR'
p6296
aS'97223'
p6297
aa(lp6298
S'12755'
p6299
aS'SW'
p6300
aS'NIGHT HERON'
p6301
aS'LN'
p6302
aS'BEAVERTON'
p6303
aS'OR'
p6304
aS'97007'
p6305
aa(lp6306
S'32445'
p6307
aS'NW'
p6308
aS'NORTH'
p6309
aS'AVE'
p6310
aS'NORTH PLAINS'
p6311
aS'OR'
p6312
aS'97133'
p6313
aa(lp6314
S'4420'
p6315
aS'SW'
p6316
aS'99TH'
p6317
aS'AVE'
p6318
aS'BEAVERTON'
p6319
aS'OR'
p6320
aS'97005'
p6321
aa(lp6322
S'3060'
p6323
aS'SW'
p6324
aS'178TH'
p6325
aS'AVE'
p6326
aS'WASHINGTON CO'
p6327
aS'OR'
p6328
aS'97003'
p6329
aa(lp6330
S'11150'
p6331
aS'SW'
p6332
aS'FOOTHILL'
p6333
aS'DR'
p6334
aS'PORTLAND'
p6335
aS'OR'
p6336
aS'97225'
p6337
aa(lp6338
S'10810'
p6339
aS'SW'
p6340
aS'HUNTINGTON'
p6341
aS'AVE'
p6342
aS'TIGARD'
p6343
aS'OR'
p6344
aS'97223'
p6345
aa(lp6346
S'275'
p6347
ag123
aS'5TH'
p6348
aS'PL'
p6349
aS'CORNELIUS'
p6350
aS'OR'
p6351
aS'97113'
p6352
aa(lp6353
S'35'
p6354
aS'NW'
p6355
aS'107TH'
p6356
aS'AVE'
p6357
aS'PORTLAND'
p6358
aS'OR'
p6359
aS'97229'
p6360
aa(lp6361
S'13295'
p6362
aS'SW'
p6363
aS'CHIMNEY RIDGE'
p6364
aS'CT'
p6365
aS'TIGARD'
p6366
aS'OR'
p6367
aS'97223'
p6368
aa(lp6369
S'10470'
p6370
aS'SW'
p6371
aS'135TH'
p6372
aS'AVE'
p6373
aS'BEAVERTON'
p6374
aS'OR'
p6375
aS'97008'
p6376
aa(lp6377
S'1182'
p6378
aS'SE'
p6379
aS'HANDEL'
p6380
aS'AVE'
p6381
aS'HILLSBORO'
p6382
aS'OR'
p6383
aS'97123'
p6384
aa(lp6385
S'18655'
p6386
aS'NW'
p6387
aS'LAPINE'
p6388
aS'ST'
p6389
aS'PORTLAND'
p6390
aS'OR'
p6391
aS'97229'
p6392
aa(lp6393
S'1970'
p6394
aS'SW'
p6395
aS'ROXBURY'
p6396
aS'AVE'
p6397
aS'PORTLAND'
p6398
aS'OR'
p6399
aS'97225'
p6400
aa(lp6401
S'6620'
p6402
aS'NW'
p6403
aS'165TH'
p6404
aS'AVE'
p6405
aS'PORTLAND'
p6406
aS'OR'
p6407
aS'97229'
p6408
aa(lp6409
S'16002'
p6410
aS'SW'
p6411
aS'REDCLOVER'
p6412
aS'LN'
p6413
aS'SHERWOOD'
p6414
aS'OR'
p6415
aS'97140'
p6416
aa(lp6417
S'264'
p6418
aS'NE'
p6419
aS'5TH'
p6420
aS'AVE'
p6421
aS'HILLSBORO'
p6422
aS'OR'
p6423
aS'97124'
p6424
aa(lp6425
S'7115'
p6426
aS'SW'
p6427
aS'LORNA'
p6428
aS'TER'
p6429
aS'BEAVERTON'
p6430
aS'OR'
p6431
aS'97007'
p6432
aa(lp6433
S'7717'
p6434
aS'SW'
p6435
aS'BAYBERRY'
p6436
aS'DR'
p6437
aS'BEAVERTON'
p6438
aS'OR'
p6439
aS'97007'
p6440
aa(lp6441
S'23894'
p6442
aS'SW'
p6443
aS'PACIFIC'
p6444
aS'HWY'
p6445
aS'SHERWOOD'
p6446
aS'OR'
p6447
aS'97140'
p6448
aa(lp6449
S'750'
p6450
aS'NW'
p6451
aS'180TH'
p6452
aS'AVE'
p6453
aS'BEAVERTON'
p6454
aS'OR'
p6455
aS'97006'
p6456
aa(lp6457
S'19995'
p6458
aS'NW'
p6459
aS'WALLOWA'
p6460
aS'PL'
p6461
aS'PORTLAND'
p6462
aS'OR'
p6463
aS'97229'
p6464
aa(lp6465
S'4115'
p6466
aS'SE'
p6467
aS'OAK'
p6468
aS'ST'
p6469
aS'HILLSBORO'
p6470
aS'OR'
p6471
aS'97123'
p6472
aa(lp6473
S'7642'
p6474
aS'SW'
p6475
aS'NYBERG'
p6476
aS'ST'
p6477
aS'TUALATIN'
p6478
aS'OR'
p6479
aS'97062'
p6480
aa(lp6481
S'17584'
p6482
aS'SW'
p6483
aS'DEVONSHIRE'
p6484
aS'WAY'
p6485
aS'SHERWOOD'
p6486
aS'OR'
p6487
aS'97140'
p6488
aa(lp6489
S'22174'
p6490
aS'SW'
p6491
aS'FLETCHER'
p6492
aS'TER'
p6493
aS'SHERWOOD'
p6494
aS'OR'
p6495
aS'97140'
p6496
aa(lp6497
S'7921'
p6498
aS'SW'
p6499
aS'OVIATT'
p6500
aS'DR'
p6501
aS'BEAVERTON'
p6502
aS'OR'
p6503
aS'97007'
p6504
aa(lp6505
S'9970'
p6506
aS'SW'
p6507
aS'160TH'
p6508
aS'AVE'
p6509
aS'BEAVERTON'
p6510
aS'OR'
p6511
aS'97007'
p6512
aa(lp6513
S'11185'
p6514
aS'SW'
p6515
aS'MORGEN'
p6516
aS'CT'
p6517
aS'TIGARD'
p6518
aS'OR'
p6519
aS'97223'
p6520
aa(lp6521
S'2381'
p6522
aS'NW'
p6523
aS'SCHMIDT'
p6524
aS'WAY'
p6525
aS'BEAVERTON'
p6526
aS'OR'
p6527
aS'97006'
p6528
aa(lp6529
S'16908'
p6530
aS'NW'
p6531
aS'DESERT CANYON'
p6532
aS'DR'
p6533
aS'PORTLAND'
p6534
aS'OR'
p6535
aS'97229'
p6536
aa(lp6537
S'6570'
p6538
aS'SW'
p6539
aS'QUEEN'
p6540
aS'LN'
p6541
aS'BEAVERTON'
p6542
aS'OR'
p6543
aS'97008'
p6544
aa(lp6545
S'8434'
p6546
aS'SW'
p6547
aS'DURANT'
p6548
aS'PL'
p6549
aS'BEAVERTON'
p6550
aS'OR'
p6551
aS'97008'
p6552
aa(lp6553
S'14703'
p6554
aS'NW'
p6555
aS'KYLE'
p6556
aS'PL'
p6557
aS'PORTLAND'
p6558
aS'OR'
p6559
aS'97229'
p6560
aa(lp6561
S'2857'
p6562
aS'NW'
p6563
aS'ADAGIO'
p6564
aS'WAY'
p6565
aS'HILLSBORO'
p6566
aS'OR'
p6567
aS'97124'
p6568
aa(lp6569
S'2550'
p6570
aS'SW'
p6571
aS'SCENIC'
p6572
aS'DR'
p6573
aS'PORTLAND'
p6574
aS'OR'
p6575
aS'97225'
p6576
aa(lp6577
S'17257'
p6578
aS'SW'
p6579
aS'MERLO'
p6580
aS'RD'
p6581
aS'WASHINGTON CO'
p6582
aS'OR'
p6583
aS'97003'
p6584
aa(lp6585
S'7107'
p6586
aS'SW'
p6587
aS'78TH'
p6588
aS'AVE'
p6589
aS'PORTLAND'
p6590
aS'OR'
p6591
aS'97223'
p6592
aa(lp6593
S'6300'
p6594
aS'SW'
p6595
aS'188TH'
p6596
aS'CT'
p6597
aS'WASHINGTON CO'
p6598
aS'OR'
p6599
aS'97078'
p6600
aa(lp6601
S'11481'
p6602
aS'SW'
p6603
aS'HALL'
p6604
aS'BLVD'
p6605
aS'TIGARD'
p6606
aS'OR'
p6607
aS'97223'
p6608
aa(lp6609
S'15649'
p6610
aS'SW'
p6611
aS'WILLAMETTE'
p6612
aS'ST'
p6613
aS'SHERWOOD'
p6614
aS'OR'
p6615
aS'97140'
p6616
aa(lp6617
S'7205'
p6618
aS'SW'
p6619
aS'BEL-AIRE'
p6620
aS'DR'
p6621
aS'BEAVERTON'
p6622
aS'OR'
p6623
aS'97008'
p6624
aa(lp6625
S'20182'
p6626
aS'SW'
p6627
aS'TILLAMOOK'
p6628
aS'CT'
p6629
aS'TUALATIN'
p6630
aS'OR'
p6631
aS'97062'
p6632
aa(lp6633
S'17838'
p6634
aS'SW'
p6635
aS'HEATHERWOOD'
p6636
aS'LN'
p6637
aS'SHERWOOD'
p6638
aS'OR'
p6639
aS'97140'
p6640
aa(lp6641
S'1220'
p6642
aS'NW'
p6643
aS'185TH'
p6644
aS'AVE'
p6645
aS'BEAVERTON'
p6646
aS'OR'
p6647
aS'97006'
p6648
aa(lp6649
S'12450'
p6650
aS'SW'
p6651
aS'FISCHER'
p6652
aS'RD'
p6653
aS'TIGARD'
p6654
aS'OR'
p6655
aS'97224'
p6656
aa(lp6657
S'16336'
p6658
aS'SW'
p6659
aS'REDTWIG'
p6660
aS'DR'
p6661
aS'SHERWOOD'
p6662
aS'OR'
p6663
aS'97140'
p6664
aa(lp6665
S'5755'
p6666
aS'SE'
p6667
aS'SUNNYBROOK'
p6668
aS'DR'
p6669
aS'HILLSBORO'
p6670
aS'OR'
p6671
aS'97123'
p6672
aa(lp6673
S'1750'
p6674
aS'SW'
p6675
aS'GOLF CREEK'
p6676
aS'DR'
p6677
aS'PORTLAND'
p6678
aS'OR'
p6679
aS'97225'
p6680
aa(lp6681
S'1308'
p6682
ag250
aS'MOUNTAIN VIEW'
p6683
aS'DR'
p6684
aS'FORESTGROVE'
p6685
aS'OR'
p6686
aS'97116'
p6687
aa(lp6688
S'1130'
p6689
aS'SE'
p6690
aS'37TH'
p6691
aS'AVE'
p6692
aS'HILLSBORO'
p6693
aS'OR'
p6694
aS'97123'
p6695
aa(lp6696
S'15170'
p6697
aS'SW'
p6698
aS'MILLIKAN'
p6699
aS'WAY'
p6700
aS'BEAVERTON'
p6701
aS'OR'
p6702
aS'97003'
p6703
aa(lp6704
S'12649'
p6705
aS'SW'
p6706
aS'PRINCE EDWARD'
p6707
aS'CT'
p6708
aS'KING CITY'
p6709
aS'OR'
p6710
aS'97224'
p6711
aa(lp6712
S'51165'
p6713
aS'SW'
p6714
aS'DEACON'
p6715
aS'DR'
p6716
aS'GASTON'
p6717
aS'OR'
p6718
aS'97119'
p6719
aa(lp6720
S'3265'
p6721
aS'SW'
p6722
aS'180TH'
p6723
aS'PL'
p6724
aS'WASHINGTON CO'
p6725
aS'OR'
p6726
aS'97003'
p6727
aa(lp6728
S'31830'
p6729
aS'NW'
p6730
aS'MEADOW'
p6731
aS'DR'
p6732
aS'North Plains'
p6733
aS'OR'
p6734
aS'97133'
p6735
aa(lp6736
S'1221'
p6737
aS'SW'
p6738
aS'KALYCA'
p6739
aS'WAY'
p6740
aS'WASHINGTON CO'
p6741
aS'OR'
p6742
aS'97003'
p6743
aa(lp6744
S'7540'
p6745
aS'SW'
p6746
aS'DUNSMUIR'
p6747
aS'LN'
p6748
aS'BEAVERTON'
p6749
aS'OR'
p6750
aS'97007'
p6751
aa(lp6752
S'3289'
p6753
ag250
aS'AMMON'
p6754
aS'WAY'
p6755
aS'FORESTGROVE'
p6756
aS'OR'
p6757
aS'97116'
p6758
aa(lp6759
S'11865'
p6760
aS'SW'
p6761
aS'TUALATIN'
p6762
aS'RD'
p6763
aS'TUALATIN'
p6764
aS'OR'
p6765
aS'97062'
p6766
aa(lp6767
S'15603'
p6768
aS'SW'
p6769
aS'HARVESTER'
p6770
aS'LN'
p6771
aS'SHERWOOD'
p6772
aS'OR'
p6773
aS'97140'
p6774
aa(lp6775
S'284'
p6776
ag123
aS'12TH'
p6777
aS'AVE'
p6778
aS'CORNELIUS'
p6779
aS'OR'
p6780
aS'97113'
p6781
aa(lp6782
S'439'
p6783
aS'SE'
p6784
aS'41ST'
p6785
aS'AVE'
p6786
aS'HILLSBORO'
p6787
aS'OR'
p6788
aS'97123'
p6789
aa(lp6790
S'3238'
p6791
aS'SW'
p6792
aS'153RD'
p6793
aS'DR'
p6794
aS'BEAVERTON'
p6795
aS'OR'
p6796
aS'97003'
p6797
aa(lp6798
S'1018'
p6799
aS'NE'
p6800
aS'ORENCO STATION'
p6801
aS'PKWY'
p6802
aS'HILLSBORO'
p6803
aS'OR'
p6804
aS'97124'
p6805
aa(lp6806
S'2713'
p6807
aS'SE'
p6808
aS'WAIBEL'
p6809
aS'DR'
p6810
aS'HILLSBORO'
p6811
aS'OR'
p6812
aS'97123'
p6813
aa(lp6814
S'2756'
p6815
aS'NW'
p6816
aS'PALAZZA'
p6817
aS'WAY'
p6818
aS'HILLSBORO'
p6819
aS'OR'
p6820
aS'97124'
p6821
aa(lp6822
S'650'
p6823
aS'NW'
p6824
aS'AUTUMNCREEK'
p6825
aS'WAY'
p6826
aS'HILLSBORO'
p6827
aS'OR'
p6828
aS'97006'
p6829
aa(lp6830
S'3760'
p6831
aS'SW'
p6832
aS'96TH'
p6833
aS'AVE'
p6834
aS'PORTLAND'
p6835
aS'OR'
p6836
aS'97225'
p6837
aa(lp6838
S'17606'
p6839
aS'SW'
p6840
aS'ELDER VIEW'
p6841
aS'DR'
p6842
aS'SHERWOOD'
p6843
aS'OR'
p6844
aS'97140'
p6845
aa(lp6846
S'2872'
p6847
aS'NW'
p6848
aS'MODA'
p6849
aS'WAY'
p6850
aS'HILLSBORO'
p6851
aS'OR'
p6852
aS'97124'
p6853
aa(lp6854
S'17546'
p6855
aS'NW'
p6856
aS'BERNARD'
p6857
aS'PL'
p6858
aS'BEAVERTON'
p6859
aS'OR'
p6860
aS'97006'
p6861
aa(lp6862
S'1823'
p6863
aS'SE'
p6864
aS'TUALATIN VALLEY'
p6865
aS'HWY'
p6866
aS'HILLSBORO'
p6867
aS'OR'
p6868
aS'97123'
p6869
aa(lp6870
S'11540'
p6871
aS'SW'
p6872
aS'GLENWOOD'
p6873
aS'CT'
p6874
aS'TIGARD'
p6875
aS'OR'
p6876
aS'97223'
p6877
aa(lp6878
S'17220'
p6879
aS'SW'
p6880
aS'WATERCREST'
p6881
aS'CT'
p6882
aS'BEAVERTON'
p6883
aS'OR'
p6884
aS'97006'
p6885
aa(lp6886
S'11900'
p6887
aS'SW'
p6888
aS'BURNETT'
p6889
aS'LN'
p6890
aS'BEAVERTON'
p6891
aS'OR'
p6892
aS'97008'
p6893
aa(lp6894
S'14771'
p6895
aS'SW'
p6896
aS'109TH'
p6897
aS'AVE'
p6898
aS'TIGARD'
p6899
aS'OR'
p6900
aS'97224'
p6901
aa(lp6902
S'7568'
p6903
aS'SW'
p6904
aS'OLESON'
p6905
aS'RD'
p6906
aS'PORTLAND'
p6907
aS'OR'
p6908
aS'97223'
p6909
aa(lp6910
S'15153'
p6911
aS'SW'
p6912
aS'154TH'
p6913
aS'AVE'
p6914
aS'TIGARD'
p6915
aS'OR'
p6916
aS'97224'
p6917
aa(lp6918
S'9735'
p6919
aS'SW'
p6920
aS'HALL'
p6921
aS'BLVD'
p6922
aS'PORTLAND'
p6923
aS'OR'
p6924
aS'97223'
p6925
aa(lp6926
S'3315'
p6927
ag250
aS'PACIFIC'
p6928
aS'AVE'
p6929
aS'FORESTGROVE'
p6930
aS'OR'
p6931
aS'97116'
p6932
aa(lp6933
S'8930'
p6934
aS'SW'
p6935
aS'155TH'
p6936
aS'AVE'
p6937
aS'BEAVERTON'
p6938
aS'OR'
p6939
aS'97007'
p6940
aa(lp6941
S'3545'
p6942
aS'NW'
p6943
aS'ASHLAND'
p6944
aS'PL'
p6945
aS'BEAVERTON'
p6946
aS'OR'
p6947
aS'97006'
p6948
aa(lp6949
S'1185'
p6950
aS'SW'
p6951
aS'BROOKWOOD'
p6952
aS'AVE'
p6953
aS'HILLSBORO'
p6954
aS'OR'
p6955
aS'97123'
p6956
aa(lp6957
S'5104'
p6958
aS'SW'
p6959
aS'SCHOLLS FERRY'
p6960
aS'RD'
p6961
aS'PORTLAND'
p6962
aS'OR'
p6963
aS'97225'
p6964
aa(lp6965
S'16025'
p6966
aS'SW'
p6967
aS'AUDUBON'
p6968
aS'ST'
p6969
aS'BEAVERTON'
p6970
aS'OR'
p6971
aS'97003'
p6972
aa(lp6973
S'7555'
p6974
aS'SW'
p6975
aS'SAGE'
p6976
aS'PL'
p6977
aS'BEAVERTON'
p6978
aS'OR'
p6979
aS'97008'
p6980
aa(lp6981
S'10480'
p6982
aS'SW'
p6983
aS'EASTRIDGE'
p6984
aS'ST'
p6985
aS'PORTLAND'
p6986
aS'OR'
p6987
aS'97225'
p6988
aa(lp6989
S'16851'
p6990
aS'SW'
p6991
aS'DIVISION'
p6992
aS'ST'
p6993
aS'BEAVERTON'
p6994
aS'OR'
p6995
aS'97007'
p6996
aa(lp6997
S'16625'
p6998
aS'SW'
p6999
aS'MARCILE'
p7000
aS'LN'
p7001
aS'BEAVERTON'
p7002
aS'OR'
p7003
aS'97007'
p7004
aa(lp7005
S'14122'
p7006
aS'SW'
p7007
aS'WHITNEY'
p7008
aS'LN'
p7009
aS'SHERWOOD'
p7010
aS'OR'
p7011
aS'97140'
p7012
aa(lp7013
S'5005'
p7014
aS'SW'
p7015
aS'MURRAY'
p7016
aS'BLVD'
p7017
aS'BEAVERTON'
p7018
aS'OR'
p7019
aS'97005'
p7020
aa(lp7021
S'1914'
p7022
ag250
aS'ELM'
p7023
aS'ST'
p7024
aS'FORESTGROVE'
p7025
aS'OR'
p7026
aS'97116'
p7027
aa(lp7028
S'3167'
p7029
aS'NW'
p7030
aS'TALON'
p7031
aS'TER'
p7032
aS'PORTLAND'
p7033
aS'OR'
p7034
aS'97229'
p7035
aa(lp7036
S'12830'
p7037
aS'NW'
p7038
aS'SCOTTSTON'
p7039
aS'TER'
p7040
aS'BANKS'
p7041
aS'OR'
p7042
aS'97106'
p7043
aa(lp7044
S'17310'
p7045
aS'NW'
p7046
aS'CROSSHAVEN'
p7047
aS'ST'
p7048
aS'PORTLAND'
p7049
aS'OR'
p7050
aS'97229'
p7051
aa(lp7052
S'4345'
p7053
aS'SW'
p7054
aS'202ND'
p7055
aS'AVE'
p7056
aS'WASHINGTON CO'
p7057
aS'OR'
p7058
aS'97078'
p7059
aa(lp7060
S'17225'
p7061
aS'NW'
p7062
aS'CORNELL'
p7063
aS'RD'
p7064
aS'BEAVERTON'
p7065
aS'OR'
p7066
aS'97006'
p7067
aa(lp7068
S'7995'
p7069
aS'SW'
p7070
aS'82ND'
p7071
aS'AVE'
p7072
aS'PORTLAND'
p7073
aS'OR'
p7074
aS'97223'
p7075
aa(lp7076
S'17845'
p7077
aS'SW'
p7078
aS'111TH'
p7079
aS'AVE'
p7080
aS'TUALATIN'
p7081
aS'OR'
p7082
aS'97062'
p7083
aa(lp7084
S'15320'
p7085
aS'NW'
p7086
aS'CENTRAL'
p7087
aS'DR'
p7088
aS'PORTLAND'
p7089
aS'OR'
p7090
aS'97229'
p7091
aa(lp7092
S'17648'
p7093
aS'SW'
p7094
aS'NELS'
p7095
aS'DR'
p7096
aS'SHERWOOD'
p7097
aS'OR'
p7098
aS'97140'
p7099
aa(lp7100
S'10770'
p7101
aS'SW'
p7102
aS'MURDOCK'
p7103
aS'ST'
p7104
aS'TIGARD'
p7105
aS'OR'
p7106
aS'97224'
p7107
aa(lp7108
S'7028'
p7109
aS'SW'
p7110
aS'ARRANMORE'
p7111
aS'WAY'
p7112
aS'PORTLAND'
p7113
aS'OR'
p7114
aS'97223'
p7115
aa(lp7116
S'616'
p7117
aS'NW'
p7118
aS'NEWSTEAD'
p7119
aS'TER'
p7120
aS'Hillsboro'
p7121
aS'OR'
p7122
aS'97006'
p7123
aa(lp7124
S'2200'
p7125
aS'SE'
p7126
aS'45TH'
p7127
aS'AVE'
p7128
aS'HILLSBORO'
p7129
aS'OR'
p7130
aS'97123'
p7131
aa(lp7132
S'780'
p7133
aS'NW'
p7134
aS'QUEENS'
p7135
aS'CT'
p7136
aS'HILLSBORO'
p7137
aS'OR'
p7138
aS'97124'
p7139
aa(lp7140
S'9849'
p7141
aS'SW'
p7142
aS'DENNEY'
p7143
aS'RD'
p7144
aS'BEAVERTON'
p7145
aS'OR'
p7146
aS'97008'
p7147
aa(lp7148
S'5870'
p7149
aS'NW'
p7150
aS'BROOKWOOD'
p7151
aS'PKWY'
p7152
aS'HILLSBORO'
p7153
aS'OR'
p7154
aS'97124'
p7155
aa(lp7156
S'11134'
p7157
aS'SW'
p7158
aS'130TH'
p7159
aS'AVE'
p7160
aS'TIGARD'
p7161
aS'OR'
p7162
aS'97223'
p7163
aa(lp7164
S'19705'
p7165
aS'SW'
p7166
aS'JOHNSON'
p7167
aS'ST'
p7168
aS'WASHINGTON CO'
p7169
aS'OR'
p7170
aS'97003'
p7171
aa(lp7172
S'12450'
p7173
aS'SW'
p7174
aS'KNOLL'
p7175
aS'DR'
p7176
aS'TIGARD'
p7177
aS'OR'
p7178
aS'97223'
p7179
aa(lp7180
S'4544'
p7181
aS'NE'
p7182
aS'CORNELL'
p7183
aS'RD'
p7184
aS'HILLSBORO'
p7185
aS'OR'
p7186
aS'97124'
p7187
aa(lp7188
S'21370'
p7189
aS'SW'
p7190
aS'LANGER FARMS'
p7191
aS'PKWY'
p7192
aS'SHERWOOD'
p7193
aS'OR'
p7194
aS'97140'
p7195
aa(lp7196
S'21580'
p7197
aS'SW'
p7198
aS'75TH'
p7199
aS'AVE'
p7200
aS'TUALATIN'
p7201
aS'OR'
p7202
aS'97062'
p7203
aa(lp7204
S'41525'
p7205
aS'NW'
p7206
aS'WILKESBORO'
p7207
aS'RD'
p7208
aS'BANKS'
p7209
aS'OR'
p7210
aS'97106'
p7211
aa(lp7212
S'2203'
p7213
ag250
aS'CEDAR'
p7214
aS'ST'
p7215
aS'FORESTGROVE'
p7216
aS'OR'
p7217
aS'97116'
p7218
aa(lp7219
S'18447'
p7220
aS'SW'
p7221
aS'ANNAMAE'
p7222
aS'LN'
p7223
aS'BEAVERTON'
p7224
aS'OR'
p7225
aS'97003'
p7226
aa(lp7227
S'15480'
p7228
aS'SW'
p7229
aS'DONNA'
p7230
aS'CT'
p7231
aS'WASHINGTON CO'
p7232
aS'OR'
p7233
aS'97078'
p7234
aa(lp7235
S'3200'
p7236
aS'NW'
p7237
aS'JENNA'
p7238
aS'TER'
p7239
aS'PORTLAND'
p7240
aS'OR'
p7241
aS'97229'
p7242
aa(lp7243
S'1013'
p7244
aS'NE'
p7245
aS'CREEKSEDGE'
p7246
aS'DR'
p7247
aS'HILLSBORO'
p7248
aS'OR'
p7249
aS'97124'
p7250
aa(lp7251
S'7940'
p7252
aS'SW'
p7253
aS'176TH'
p7254
aS'TER'
p7255
aS'BEAVERTON'
p7256
aS'OR'
p7257
aS'97007'
p7258
aa(lp7259
S'15150'
p7260
aS'SW'
p7261
aS'116TH'
p7262
aS'AVE'
p7263
aS'KING CITY'
p7264
aS'OR'
p7265
aS'97224'
p7266
aa(lp7267
S'874'
p7268
aS'SW'
p7269
aS'215TH'
p7270
aS'AVE'
p7271
aS'WASHINGTON CO'
p7272
aS'OR'
p7273
aS'97003'
p7274
aa(lp7275
S'2204'
p7276
aS'SW'
p7277
aS'217TH'
p7278
aS'PL'
p7279
aS'WASHINGTON CO'
p7280
aS'OR'
p7281
aS'97003'
p7282
aa(lp7283
S'2001'
p7284
aS'SE'
p7285
aS'DUNCAN'
p7286
aS'DR'
p7287
aS'HILLSBORO'
p7288
aS'OR'
p7289
aS'97123'
p7290
aa(lp7291
S'11515'
p7292
aS'SW'
p7293
aS'TERRACE TRAILS'
p7294
aS'DR'
p7295
aS'TIGARD'
p7296
aS'OR'
p7297
aS'97223'
p7298
aa(lp7299
S'6327'
p7300
aS'SE'
p7301
aS'KENSINGTON'
p7302
aS'ST'
p7303
aS'HILLSBORO'
p7304
aS'OR'
p7305
aS'97123'
p7306
aa(lp7307
S'2040'
p7308
ag250
aS'A'
p7309
aS'ST'
p7310
aS'FORESTGROVE'
p7311
aS'OR'
p7312
aS'97116'
p7313
aa(lp7314
S'14955'
p7315
aS'SW'
p7316
aS'EMERALD'
p7317
aS'CT'
p7318
aS'BEAVERTON'
p7319
aS'OR'
p7320
aS'97007'
p7321
aa(lp7322
S'4622'
p7323
aS'NW'
p7324
aS'DRESDEN'
p7325
aS'PL'
p7326
aS'PORTLAND'
p7327
aS'OR'
p7328
aS'97229'
p7329
aa(lp7330
S'2460'
p7331
aS'NW'
p7332
aS'SCHMIDT'
p7333
aS'WAY'
p7334
aS'BEAVERTON'
p7335
aS'OR'
p7336
aS'97006'
p7337
aa(lp7338
S'1476'
p7339
aS'SW'
p7340
aS'218TH'
p7341
aS'TER'
p7342
aS'WASHINGTON CO'
p7343
aS'OR'
p7344
aS'97003'
p7345
aa(lp7346
S'6984'
p7347
aS'SE'
p7348
aS'LANGWOOD'
p7349
aS'ST'
p7350
aS'HILLSBORO'
p7351
aS'OR'
p7352
aS'97123'
p7353
aa(lp7354
S'3850'
p7355
aS'SW'
p7356
aS'144TH'
p7357
aS'AVE'
p7358
aS'BEAVERTON'
p7359
aS'OR'
p7360
aS'97005'
p7361
aa(lp7362
S'36535'
p7363
aS'SW'
p7364
aS'GNOS'
p7365
aS'RD'
p7366
aS'CORNELIUS'
p7367
aS'OR'
p7368
aS'97113'
p7369
aa(lp7370
S'6645'
p7371
aS'SW'
p7372
aS'PRESLYNN'
p7373
aS'DR'
p7374
aS'PORTLAND'
p7375
aS'OR'
p7376
aS'97225'
p7377
aa(lp7378
S'12817'
p7379
aS'SW'
p7380
aS'KAMERON'
p7381
aS'WAY'
p7382
aS'PORTLAND'
p7383
aS'OR'
p7384
aS'97223'
p7385
aa(lp7386
S'6886'
p7387
aS'NE'
p7388
aS'VININGS'
p7389
aS'WAY'
p7390
aS'HILLSBORO'
p7391
aS'OR'
p7392
aS'97124'
p7393
aa(lp7394
S'21648'
p7395
aS'SW'
p7396
aS'KLICKITAT'
p7397
aS'CT'
p7398
aS'TUALATIN'
p7399
aS'OR'
p7400
aS'97062'
p7401
aa(lp7402
S'11206'
p7403
aS'SW'
p7404
aS'PINTAIL'
p7405
aS'LOOP'
p7406
aS'BEAVERTON'
p7407
aS'OR'
p7408
aS'97007'
p7409
aa(lp7410
S'1110'
p7411
aS'NW'
p7412
aS'173RD'
p7413
aS'AVE'
p7414
aS'BEAVERTON'
p7415
aS'OR'
p7416
aS'97006'
p7417
aa(lp7418
S'17571'
p7419
aS'SW'
p7420
aS'COBB'
p7421
aS'LN'
p7422
aS'BEAVERTON'
p7423
aS'OR'
p7424
aS'97007'
p7425
aa(lp7426
S'3700'
p7427
aS'SE'
p7428
aS'MCKENZIE'
p7429
aS'AVE'
p7430
aS'HILLSBORO'
p7431
aS'OR'
p7432
aS'97123'
p7433
aa(lp7434
S'13645'
p7435
aS'NW'
p7436
aS'SCIENCE PARK'
p7437
aS'DR'
p7438
aS'PORTLAND'
p7439
aS'OR'
p7440
aS'97229'
p7441
aa(lp7442
S'8845'
p7443
aS'SW'
p7444
aS'NISQUALLY'
p7445
aS'CT'
p7446
aS'TUALATIN'
p7447
aS'OR'
p7448
aS'97062'
p7449
aa(lp7450
S'20919'
p7451
aS'NW'
p7452
aS'WINDSTONE'
p7453
aS'CT'
p7454
aS'HILLSBORO'
p7455
aS'OR'
p7456
aS'97006'
p7457
aa(lp7458
S'2878'
p7459
aS'NW'
p7460
aS'ADAGIO'
p7461
aS'WAY'
p7462
aS'HILLSBORO'
p7463
aS'OR'
p7464
aS'97124'
p7465
aa(lp7466
S'20638'
p7467
aS'SW'
p7468
aS'ANNA'
p7469
aS'CT'
p7470
aS'BEAVERTON'
p7471
aS'OR'
p7472
aS'97006'
p7473
aa(lp7474
S'176'
p7475
aS'NE'
p7476
aS'CORY'
p7477
aS'ST'
p7478
aS'HILLSBORO'
p7479
aS'OR'
p7480
aS'97124'
p7481
aa(lp7482
S'13171'
p7483
aS'NW'
p7484
aS'LOMBARDY'
p7485
aS'DR'
p7486
aS'PORTLAND'
p7487
aS'OR'
p7488
aS'97229'
p7489
aa(lp7490
S'11720'
p7491
aS'SW'
p7492
aS'6TH'
p7493
aS'ST'
p7494
aS'BEAVERTON'
p7495
aS'OR'
p7496
aS'97005'
p7497
aa(lp7498
S'15536'
p7499
aS'SW'
p7500
aS'ROSHAK'
p7501
aS'RD'
p7502
aS'TIGARD'
p7503
aS'OR'
p7504
aS'97224'
p7505
aa(lp7506
S'2401'
p7507
aS'NE'
p7508
aS'CORNELL'
p7509
aS'RD'
p7510
aS'HILLSBORO'
p7511
aS'OR'
p7512
aS'97124'
p7513
aa(lp7514
S'5095'
p7515
aS'SW'
p7516
aS'163RD'
p7517
aS'AVE'
p7518
aS'BEAVERTON'
p7519
aS'OR'
p7520
aS'97007'
p7521
aa(lp7522
S'850'
p7523
aS'SW'
p7524
aS'TOUCHMARK'
p7525
aS'WAY'
p7526
aS'PORTLAND'
p7527
aS'OR'
p7528
aS'97225'
p7529
aa(lp7530
S'22550'
p7531
aS'SW'
p7532
aS'HIGHLAND'
p7533
aS'DR'
p7534
aS'Sherwood'
p7535
aS'OR'
p7536
aS'97140'
p7537
aa(lp7538
S'19020'
p7539
aS'NW'
p7540
aS'SNOQUALMIE'
p7541
aS'ST'
p7542
aS'HILLSBORO'
p7543
aS'OR'
p7544
aS'97006'
p7545
aa(lp7546
S'9840'
p7547
aS'SW'
p7548
aS'90TH'
p7549
aS'AVE'
p7550
aS'PORTLAND'
p7551
aS'OR'
p7552
aS'97223'
p7553
aa(lp7554
S'10830'
p7555
aS'SW'
p7556
aS'CANTERBURY'
p7557
aS'LN'
p7558
aS'TIGARD'
p7559
aS'OR'
p7560
aS'97224'
p7561
aa(lp7562
S'3845'
p7563
aS'SW'
p7564
aS'MORGANFIELD'
p7565
aS'TER'
p7566
aS'WASHINGTON CO'
p7567
aS'OR'
p7568
aS'97078'
p7569
aa(lp7570
S'15000'
p7571
aS'SW'
p7572
aS'FARMINGTON'
p7573
aS'RD'
p7574
aS'BEAVERTON'
p7575
aS'OR'
p7576
aS'97007'
p7577
aa(lp7578
S'7400'
p7579
aS'SW'
p7580
aS'CHERRY'
p7581
aS'DR'
p7582
aS'TIGARD'
p7583
aS'OR'
p7584
aS'97223'
p7585
aa(lp7586
S'17740'
p7587
aS'SW'
p7588
aS'131ST'
p7589
aS'AVE'
p7590
aS'TIGARD'
p7591
aS'OR'
p7592
aS'97224'
p7593
aa(lp7594
S'425'
p7595
aS'NW'
p7596
aS'LOST SPRINGS'
p7597
aS'TER'
p7598
aS'Beaverton'
p7599
aS'OR'
p7600
aS'97229'
p7601
aa(lp7602
S'8002'
p7603
aS'SW'
p7604
aS'LANDAU'
p7605
aS'ST'
p7606
aS'TIGARD'
p7607
aS'OR'
p7608
aS'97223'
p7609
aa(lp7610
S'3864'
p7611
aS'NW'
p7612
aS'CHEMULT'
p7613
aS'PL'
p7614
aS'PORTLAND'
p7615
aS'OR'
p7616
aS'97229'
p7617
aa(lp7618
S'18935'
p7619
aS'NW'
p7620
aS'AURORA'
p7621
aS'ST'
p7622
aS'PORTLAND'
p7623
aS'OR'
p7624
aS'97229'
p7625
aa(lp7626
S'7865'
p7627
aS'SW'
p7628
aS'69TH'
p7629
aS'AVE'
p7630
aS'PORTLAND'
p7631
aS'OR'
p7632
aS'97223'
p7633
aa(lp7634
S'230'
p7635
aS'NW'
p7636
aS'TORREYVIEW'
p7637
aS'DR'
p7638
aS'PORTLAND'
p7639
aS'OR'
p7640
aS'97229'
p7641
aa(lp7642
S'555'
p7643
aS'SW'
p7644
aS'MURRAY'
p7645
aS'BLVD'
p7646
aS'BEAVERTON'
p7647
aS'OR'
p7648
aS'97005'
p7649
aa(lp7650
S'18718'
p7651
aS'SW'
p7652
aS'91ST'
p7653
aS'TER'
p7654
aS'TUALATIN'
p7655
aS'OR'
p7656
aS'97062'
p7657
aa(lp7658
S'6755'
p7659
aS'SW'
p7660
aS'VERMONT'
p7661
aS'ST'
p7662
aS'BEAVERTON'
p7663
aS'OR'
p7664
aS'97223'
p7665
aa(lp7666
S'2135'
p7667
aS'SW'
p7668
aS'187TH'
p7669
aS'AVE'
p7670
aS'WASHINGTON CO'
p7671
aS'OR'
p7672
aS'97003'
p7673
aa(lp7674
S'19285'
p7675
aS'NW'
p7676
aS'WALKER'
p7677
aS'RD'
p7678
aS'BEAVERTON'
p7679
aS'OR'
p7680
aS'97006'
p7681
aa(lp7682
S'21000'
p7683
aS'NW'
p7684
aS'QUATAMA'
p7685
aS'RD'
p7686
aS'BEAVERTON'
p7687
aS'OR'
p7688
aS'97006'
p7689
aa(lp7690
S'8655'
p7691
aS'SW'
p7692
aS'133RD'
p7693
aS'AVE'
p7694
aS'BEAVERTON'
p7695
aS'OR'
p7696
aS'97008'
p7697
aa(lp7698
S'18737'
p7699
aS'SW'
p7700
aS'WESTLAND'
p7701
aS'LN'
p7702
aS'WASHINGTON CO'
p7703
aS'OR'
p7704
aS'97003'
p7705
aa(lp7706
S'373'
p7707
aS'SW'
p7708
aS'MARSUDA'
p7709
aS'TER'
p7710
aS'BEAVERTON'
p7711
aS'OR'
p7712
aS'97006'
p7713
aa(lp7714
S'765'
p7715
aS'NW'
p7716
aS'TORREYVIEW'
p7717
aS'LN'
p7718
aS'PORTLAND'
p7719
aS'OR'
p7720
aS'97229'
p7721
aa(lp7722
S'7520'
p7723
aS'SW'
p7724
aS'SCHOLLS FERRY'
p7725
aS'RD'
p7726
aS'BEAVERTON'
p7727
aS'OR'
p7728
aS'97008'
p7729
aa(lp7730
S'17605'
p7731
aS'NW'
p7732
aS'SHADYFIR'
p7733
aS'LOOP'
p7734
aS'BEAVERTON'
p7735
aS'OR'
p7736
aS'97006'
p7737
aa(lp7738
S'12112'
p7739
aS'SW'
p7740
aS'WINDMILL'
p7741
aS'DR'
p7742
aS'BEAVERTON'
p7743
aS'OR'
p7744
aS'97008'
p7745
aa(lp7746
S'12164'
p7747
aS'SW'
p7748
aS'SCHOLLS FERRY'
p7749
aS'RD'
p7750
aS'TIGARD'
p7751
aS'OR'
p7752
aS'97223'
p7753
aa(lp7754
S'17755'
p7755
aS'SW'
p7756
aS'LAWTON'
p7757
aS'ST'
p7758
aS'WASHINGTON CO'
p7759
aS'OR'
p7760
aS'97003'
p7761
aa(lp7762
S'6908'
p7763
aS'SW'
p7764
aS'BEAVERTON-HILLSDALE'
p7765
aS'HWY'
p7766
aS'PORTLAND'
p7767
aS'OR'
p7768
aS'97225'
p7769
aa(lp7770
S'9385'
p7771
aS'SW'
p7772
aS'HEIKES'
p7773
aS'DR'
p7774
aS'HILLSBORO'
p7775
aS'OR'
p7776
aS'97123'
p7777
aa(lp7778
S'12220'
p7779
aS'SW'
p7780
aS'ALLEN'
p7781
aS'BLVD'
p7782
aS'BEAVERTON'
p7783
aS'OR'
p7784
aS'97005'
p7785
aa(lp7786
S'1220'
p7787
aS'SW'
p7788
aS'66TH'
p7789
aS'AVE'
p7790
aS'PORTLAND'
p7791
aS'OR'
p7792
aS'97225'
p7793
aa(lp7794
S'2950'
p7795
aS'SE'
p7796
aS'BRIDGESIDE'
p7797
aS'WAY'
p7798
aS'HILLSBORO'
p7799
aS'OR'
p7800
aS'97123'
p7801
aa(lp7802
S'17485'
p7803
aS'SW'
p7804
aS'107TH'
p7805
aS'AVE'
p7806
aS'TUALATIN'
p7807
aS'OR'
p7808
aS'97062'
p7809
aa(lp7810
S'14800'
p7811
aS'NW'
p7812
aS'CORNELL'
p7813
aS'RD'
p7814
aS'PORTLAND'
p7815
aS'OR'
p7816
aS'97229'
p7817
aa(lp7818
S'10605'
p7819
aS'SW'
p7820
aS'HAZELBROOK'
p7821
aS'RD'
p7822
aS'TUALATIN'
p7823
aS'OR'
p7824
aS'97062'
p7825
aa.